
src/thttpd:     file format elf64-x86-64


Disassembly of section .init:

0000000000402198 <_init>:
  402198:	48 83 ec 08          	sub    $0x8,%rsp
  40219c:	48 8b 05 55 2e 21 00 	mov    0x212e55(%rip),%rax        # 614ff8 <__gmon_start__>
  4021a3:	48 85 c0             	test   %rax,%rax
  4021a6:	74 05                	je     4021ad <_init+0x15>
  4021a8:	e8 43 07 00 00       	callq  4028f0 <.plt.got>
  4021ad:	48 83 c4 08          	add    $0x8,%rsp
  4021b1:	c3                   	retq   

Disassembly of section .plt:

00000000004021c0 <.plt>:
  4021c0:	ff 35 42 2e 21 00    	pushq  0x212e42(%rip)        # 615008 <_GLOBAL_OFFSET_TABLE_+0x8>
  4021c6:	ff 25 44 2e 21 00    	jmpq   *0x212e44(%rip)        # 615010 <_GLOBAL_OFFSET_TABLE_+0x10>
  4021cc:	0f 1f 40 00          	nopl   0x0(%rax)

00000000004021d0 <getenv@plt>:
  4021d0:	ff 25 42 2e 21 00    	jmpq   *0x212e42(%rip)        # 615018 <getenv@GLIBC_2.2.5>
  4021d6:	68 00 00 00 00       	pushq  $0x0
  4021db:	e9 e0 ff ff ff       	jmpq   4021c0 <.plt>

00000000004021e0 <free@plt>:
  4021e0:	ff 25 3a 2e 21 00    	jmpq   *0x212e3a(%rip)        # 615020 <free@GLIBC_2.2.5>
  4021e6:	68 01 00 00 00       	pushq  $0x1
  4021eb:	e9 d0 ff ff ff       	jmpq   4021c0 <.plt>

00000000004021f0 <strcasecmp@plt>:
  4021f0:	ff 25 32 2e 21 00    	jmpq   *0x212e32(%rip)        # 615028 <strcasecmp@GLIBC_2.2.5>
  4021f6:	68 02 00 00 00       	pushq  $0x2
  4021fb:	e9 c0 ff ff ff       	jmpq   4021c0 <.plt>

0000000000402200 <closelog@plt>:
  402200:	ff 25 2a 2e 21 00    	jmpq   *0x212e2a(%rip)        # 615030 <closelog@GLIBC_2.2.5>
  402206:	68 03 00 00 00       	pushq  $0x3
  40220b:	e9 b0 ff ff ff       	jmpq   4021c0 <.plt>

0000000000402210 <localtime@plt>:
  402210:	ff 25 22 2e 21 00    	jmpq   *0x212e22(%rip)        # 615038 <localtime@GLIBC_2.2.5>
  402216:	68 04 00 00 00       	pushq  $0x4
  40221b:	e9 a0 ff ff ff       	jmpq   4021c0 <.plt>

0000000000402220 <abort@plt>:
  402220:	ff 25 1a 2e 21 00    	jmpq   *0x212e1a(%rip)        # 615040 <abort@GLIBC_2.2.5>
  402226:	68 05 00 00 00       	pushq  $0x5
  40222b:	e9 90 ff ff ff       	jmpq   4021c0 <.plt>

0000000000402230 <__errno_location@plt>:
  402230:	ff 25 12 2e 21 00    	jmpq   *0x212e12(%rip)        # 615048 <__errno_location@GLIBC_2.2.5>
  402236:	68 06 00 00 00       	pushq  $0x6
  40223b:	e9 80 ff ff ff       	jmpq   4021c0 <.plt>

0000000000402240 <strncpy@plt>:
  402240:	ff 25 0a 2e 21 00    	jmpq   *0x212e0a(%rip)        # 615050 <strncpy@GLIBC_2.2.5>
  402246:	68 07 00 00 00       	pushq  $0x7
  40224b:	e9 70 ff ff ff       	jmpq   4021c0 <.plt>

0000000000402250 <strncmp@plt>:
  402250:	ff 25 02 2e 21 00    	jmpq   *0x212e02(%rip)        # 615058 <strncmp@GLIBC_2.2.5>
  402256:	68 08 00 00 00       	pushq  $0x8
  40225b:	e9 60 ff ff ff       	jmpq   4021c0 <.plt>

0000000000402260 <strcpy@plt>:
  402260:	ff 25 fa 2d 21 00    	jmpq   *0x212dfa(%rip)        # 615060 <strcpy@GLIBC_2.2.5>
  402266:	68 09 00 00 00       	pushq  $0x9
  40226b:	e9 50 ff ff ff       	jmpq   4021c0 <.plt>

0000000000402270 <chroot@plt>:
  402270:	ff 25 f2 2d 21 00    	jmpq   *0x212df2(%rip)        # 615068 <chroot@GLIBC_2.2.5>
  402276:	68 0a 00 00 00       	pushq  $0xa
  40227b:	e9 40 ff ff ff       	jmpq   4021c0 <.plt>

0000000000402280 <writev@plt>:
  402280:	ff 25 ea 2d 21 00    	jmpq   *0x212dea(%rip)        # 615070 <writev@GLIBC_2.2.5>
  402286:	68 0b 00 00 00       	pushq  $0xb
  40228b:	e9 30 ff ff ff       	jmpq   4021c0 <.plt>

0000000000402290 <puts@plt>:
  402290:	ff 25 e2 2d 21 00    	jmpq   *0x212de2(%rip)        # 615078 <puts@GLIBC_2.2.5>
  402296:	68 0c 00 00 00       	pushq  $0xc
  40229b:	e9 20 ff ff ff       	jmpq   4021c0 <.plt>

00000000004022a0 <qsort@plt>:
  4022a0:	ff 25 da 2d 21 00    	jmpq   *0x212dda(%rip)        # 615080 <qsort@GLIBC_2.2.5>
  4022a6:	68 0d 00 00 00       	pushq  $0xd
  4022ab:	e9 10 ff ff ff       	jmpq   4021c0 <.plt>

00000000004022b0 <fread@plt>:
  4022b0:	ff 25 d2 2d 21 00    	jmpq   *0x212dd2(%rip)        # 615088 <fread@GLIBC_2.2.5>
  4022b6:	68 0e 00 00 00       	pushq  $0xe
  4022bb:	e9 00 ff ff ff       	jmpq   4021c0 <.plt>

00000000004022c0 <vsnprintf@plt>:
  4022c0:	ff 25 ca 2d 21 00    	jmpq   *0x212dca(%rip)        # 615090 <vsnprintf@GLIBC_2.2.5>
  4022c6:	68 0f 00 00 00       	pushq  $0xf
  4022cb:	e9 f0 fe ff ff       	jmpq   4021c0 <.plt>

00000000004022d0 <setsockopt@plt>:
  4022d0:	ff 25 c2 2d 21 00    	jmpq   *0x212dc2(%rip)        # 615098 <setsockopt@GLIBC_2.2.5>
  4022d6:	68 10 00 00 00       	pushq  $0x10
  4022db:	e9 e0 fe ff ff       	jmpq   4021c0 <.plt>

00000000004022e0 <readlink@plt>:
  4022e0:	ff 25 ba 2d 21 00    	jmpq   *0x212dba(%rip)        # 6150a0 <readlink@GLIBC_2.2.5>
  4022e6:	68 11 00 00 00       	pushq  $0x11
  4022eb:	e9 d0 fe ff ff       	jmpq   4021c0 <.plt>

00000000004022f0 <fcntl@plt>:
  4022f0:	ff 25 b2 2d 21 00    	jmpq   *0x212db2(%rip)        # 6150a8 <fcntl@GLIBC_2.2.5>
  4022f6:	68 12 00 00 00       	pushq  $0x12
  4022fb:	e9 c0 fe ff ff       	jmpq   4021c0 <.plt>

0000000000402300 <write@plt>:
  402300:	ff 25 aa 2d 21 00    	jmpq   *0x212daa(%rip)        # 6150b0 <write@GLIBC_2.2.5>
  402306:	68 13 00 00 00       	pushq  $0x13
  40230b:	e9 b0 fe ff ff       	jmpq   4021c0 <.plt>

0000000000402310 <getpid@plt>:
  402310:	ff 25 a2 2d 21 00    	jmpq   *0x212da2(%rip)        # 6150b8 <getpid@GLIBC_2.2.5>
  402316:	68 14 00 00 00       	pushq  $0x14
  40231b:	e9 a0 fe ff ff       	jmpq   4021c0 <.plt>

0000000000402320 <fclose@plt>:
  402320:	ff 25 9a 2d 21 00    	jmpq   *0x212d9a(%rip)        # 6150c0 <fclose@GLIBC_2.2.5>
  402326:	68 15 00 00 00       	pushq  $0x15
  40232b:	e9 90 fe ff ff       	jmpq   4021c0 <.plt>

0000000000402330 <opendir@plt>:
  402330:	ff 25 92 2d 21 00    	jmpq   *0x212d92(%rip)        # 6150c8 <opendir@GLIBC_2.2.5>
  402336:	68 16 00 00 00       	pushq  $0x16
  40233b:	e9 80 fe ff ff       	jmpq   4021c0 <.plt>

0000000000402340 <ctime@plt>:
  402340:	ff 25 8a 2d 21 00    	jmpq   *0x212d8a(%rip)        # 6150d0 <ctime@GLIBC_2.2.5>
  402346:	68 17 00 00 00       	pushq  $0x17
  40234b:	e9 70 fe ff ff       	jmpq   4021c0 <.plt>

0000000000402350 <shutdown@plt>:
  402350:	ff 25 82 2d 21 00    	jmpq   *0x212d82(%rip)        # 6150d8 <shutdown@GLIBC_2.2.5>
  402356:	68 18 00 00 00       	pushq  $0x18
  40235b:	e9 60 fe ff ff       	jmpq   4021c0 <.plt>

0000000000402360 <strlen@plt>:
  402360:	ff 25 7a 2d 21 00    	jmpq   *0x212d7a(%rip)        # 6150e0 <strlen@GLIBC_2.2.5>
  402366:	68 19 00 00 00       	pushq  $0x19
  40236b:	e9 50 fe ff ff       	jmpq   4021c0 <.plt>

0000000000402370 <__lxstat@plt>:
  402370:	ff 25 72 2d 21 00    	jmpq   *0x212d72(%rip)        # 6150e8 <__lxstat@GLIBC_2.2.5>
  402376:	68 1a 00 00 00       	pushq  $0x1a
  40237b:	e9 40 fe ff ff       	jmpq   4021c0 <.plt>

0000000000402380 <chdir@plt>:
  402380:	ff 25 6a 2d 21 00    	jmpq   *0x212d6a(%rip)        # 6150f0 <chdir@GLIBC_2.2.5>
  402386:	68 1b 00 00 00       	pushq  $0x1b
  40238b:	e9 30 fe ff ff       	jmpq   4021c0 <.plt>

0000000000402390 <getuid@plt>:
  402390:	ff 25 62 2d 21 00    	jmpq   *0x212d62(%rip)        # 6150f8 <getuid@GLIBC_2.2.5>
  402396:	68 1c 00 00 00       	pushq  $0x1c
  40239b:	e9 20 fe ff ff       	jmpq   4021c0 <.plt>

00000000004023a0 <mmap@plt>:
  4023a0:	ff 25 5a 2d 21 00    	jmpq   *0x212d5a(%rip)        # 615100 <mmap@GLIBC_2.2.5>
  4023a6:	68 1d 00 00 00       	pushq  $0x1d
  4023ab:	e9 10 fe ff ff       	jmpq   4021c0 <.plt>

00000000004023b0 <dup2@plt>:
  4023b0:	ff 25 52 2d 21 00    	jmpq   *0x212d52(%rip)        # 615108 <dup2@GLIBC_2.2.5>
  4023b6:	68 1e 00 00 00       	pushq  $0x1e
  4023bb:	e9 00 fe ff ff       	jmpq   4021c0 <.plt>

00000000004023c0 <strchr@plt>:
  4023c0:	ff 25 4a 2d 21 00    	jmpq   *0x212d4a(%rip)        # 615110 <strchr@GLIBC_2.2.5>
  4023c6:	68 1f 00 00 00       	pushq  $0x1f
  4023cb:	e9 f0 fd ff ff       	jmpq   4021c0 <.plt>

00000000004023d0 <snprintf@plt>:
  4023d0:	ff 25 42 2d 21 00    	jmpq   *0x212d42(%rip)        # 615118 <snprintf@GLIBC_2.2.5>
  4023d6:	68 20 00 00 00       	pushq  $0x20
  4023db:	e9 e0 fd ff ff       	jmpq   4021c0 <.plt>

00000000004023e0 <gai_strerror@plt>:
  4023e0:	ff 25 3a 2d 21 00    	jmpq   *0x212d3a(%rip)        # 615120 <gai_strerror@GLIBC_2.2.5>
  4023e6:	68 21 00 00 00       	pushq  $0x21
  4023eb:	e9 d0 fd ff ff       	jmpq   4021c0 <.plt>

00000000004023f0 <strrchr@plt>:
  4023f0:	ff 25 32 2d 21 00    	jmpq   *0x212d32(%rip)        # 615128 <strrchr@GLIBC_2.2.5>
  4023f6:	68 22 00 00 00       	pushq  $0x22
  4023fb:	e9 c0 fd ff ff       	jmpq   4021c0 <.plt>

0000000000402400 <gettimeofday@plt>:
  402400:	ff 25 2a 2d 21 00    	jmpq   *0x212d2a(%rip)        # 615130 <gettimeofday@GLIBC_2.2.5>
  402406:	68 23 00 00 00       	pushq  $0x23
  40240b:	e9 b0 fd ff ff       	jmpq   4021c0 <.plt>

0000000000402410 <getcwd@plt>:
  402410:	ff 25 22 2d 21 00    	jmpq   *0x212d22(%rip)        # 615138 <getcwd@GLIBC_2.2.5>
  402416:	68 24 00 00 00       	pushq  $0x24
  40241b:	e9 a0 fd ff ff       	jmpq   4021c0 <.plt>

0000000000402420 <alarm@plt>:
  402420:	ff 25 1a 2d 21 00    	jmpq   *0x212d1a(%rip)        # 615140 <alarm@GLIBC_2.2.5>
  402426:	68 25 00 00 00       	pushq  $0x25
  40242b:	e9 90 fd ff ff       	jmpq   4021c0 <.plt>

0000000000402430 <close@plt>:
  402430:	ff 25 12 2d 21 00    	jmpq   *0x212d12(%rip)        # 615148 <close@GLIBC_2.2.5>
  402436:	68 26 00 00 00       	pushq  $0x26
  40243b:	e9 80 fd ff ff       	jmpq   4021c0 <.plt>

0000000000402440 <setgroups@plt>:
  402440:	ff 25 0a 2d 21 00    	jmpq   *0x212d0a(%rip)        # 615150 <setgroups@GLIBC_2.2.5>
  402446:	68 27 00 00 00       	pushq  $0x27
  40244b:	e9 70 fd ff ff       	jmpq   4021c0 <.plt>

0000000000402450 <crypt@plt>:
  402450:	ff 25 02 2d 21 00    	jmpq   *0x212d02(%rip)        # 615158 <crypt@GLIBC_2.2.5>
  402456:	68 28 00 00 00       	pushq  $0x28
  40245b:	e9 60 fd ff ff       	jmpq   4021c0 <.plt>

0000000000402460 <pipe@plt>:
  402460:	ff 25 fa 2c 21 00    	jmpq   *0x212cfa(%rip)        # 615160 <pipe@GLIBC_2.2.5>
  402466:	68 29 00 00 00       	pushq  $0x29
  40246b:	e9 50 fd ff ff       	jmpq   4021c0 <.plt>

0000000000402470 <getnameinfo@plt>:
  402470:	ff 25 f2 2c 21 00    	jmpq   *0x212cf2(%rip)        # 615168 <getnameinfo@GLIBC_2.2.5>
  402476:	68 2a 00 00 00       	pushq  $0x2a
  40247b:	e9 40 fd ff ff       	jmpq   4021c0 <.plt>

0000000000402480 <setsid@plt>:
  402480:	ff 25 ea 2c 21 00    	jmpq   *0x212cea(%rip)        # 615170 <setsid@GLIBC_2.2.5>
  402486:	68 2b 00 00 00       	pushq  $0x2b
  40248b:	e9 30 fd ff ff       	jmpq   4021c0 <.plt>

0000000000402490 <strspn@plt>:
  402490:	ff 25 e2 2c 21 00    	jmpq   *0x212ce2(%rip)        # 615178 <strspn@GLIBC_2.2.5>
  402496:	68 2c 00 00 00       	pushq  $0x2c
  40249b:	e9 20 fd ff ff       	jmpq   4021c0 <.plt>

00000000004024a0 <closedir@plt>:
  4024a0:	ff 25 da 2c 21 00    	jmpq   *0x212cda(%rip)        # 615180 <closedir@GLIBC_2.2.5>
  4024a6:	68 2d 00 00 00       	pushq  $0x2d
  4024ab:	e9 10 fd ff ff       	jmpq   4021c0 <.plt>

00000000004024b0 <strcspn@plt>:
  4024b0:	ff 25 d2 2c 21 00    	jmpq   *0x212cd2(%rip)        # 615188 <strcspn@GLIBC_2.2.5>
  4024b6:	68 2e 00 00 00       	pushq  $0x2e
  4024bb:	e9 00 fd ff ff       	jmpq   4021c0 <.plt>

00000000004024c0 <read@plt>:
  4024c0:	ff 25 ca 2c 21 00    	jmpq   *0x212cca(%rip)        # 615190 <read@GLIBC_2.2.5>
  4024c6:	68 2f 00 00 00       	pushq  $0x2f
  4024cb:	e9 f0 fc ff ff       	jmpq   4021c0 <.plt>

00000000004024d0 <__libc_start_main@plt>:
  4024d0:	ff 25 c2 2c 21 00    	jmpq   *0x212cc2(%rip)        # 615198 <__libc_start_main@GLIBC_2.2.5>
  4024d6:	68 30 00 00 00       	pushq  $0x30
  4024db:	e9 e0 fc ff ff       	jmpq   4021c0 <.plt>

00000000004024e0 <fgets@plt>:
  4024e0:	ff 25 ba 2c 21 00    	jmpq   *0x212cba(%rip)        # 6151a0 <fgets@GLIBC_2.2.5>
  4024e6:	68 31 00 00 00       	pushq  $0x31
  4024eb:	e9 d0 fc ff ff       	jmpq   4021c0 <.plt>

00000000004024f0 <execve@plt>:
  4024f0:	ff 25 b2 2c 21 00    	jmpq   *0x212cb2(%rip)        # 6151a8 <execve@GLIBC_2.2.5>
  4024f6:	68 32 00 00 00       	pushq  $0x32
  4024fb:	e9 c0 fc ff ff       	jmpq   4021c0 <.plt>

0000000000402500 <atoll@plt>:
  402500:	ff 25 aa 2c 21 00    	jmpq   *0x212caa(%rip)        # 6151b0 <atoll@GLIBC_2.2.5>
  402506:	68 33 00 00 00       	pushq  $0x33
  40250b:	e9 b0 fc ff ff       	jmpq   4021c0 <.plt>

0000000000402510 <strcmp@plt>:
  402510:	ff 25 a2 2c 21 00    	jmpq   *0x212ca2(%rip)        # 6151b8 <strcmp@GLIBC_2.2.5>
  402516:	68 34 00 00 00       	pushq  $0x34
  40251b:	e9 a0 fc ff ff       	jmpq   4021c0 <.plt>

0000000000402520 <getpwnam@plt>:
  402520:	ff 25 9a 2c 21 00    	jmpq   *0x212c9a(%rip)        # 6151c0 <getpwnam@GLIBC_2.2.5>
  402526:	68 35 00 00 00       	pushq  $0x35
  40252b:	e9 90 fc ff ff       	jmpq   4021c0 <.plt>

0000000000402530 <fprintf@plt>:
  402530:	ff 25 92 2c 21 00    	jmpq   *0x212c92(%rip)        # 6151c8 <fprintf@GLIBC_2.2.5>
  402536:	68 36 00 00 00       	pushq  $0x36
  40253b:	e9 80 fc ff ff       	jmpq   4021c0 <.plt>

0000000000402540 <memcpy@plt>:
  402540:	ff 25 8a 2c 21 00    	jmpq   *0x212c8a(%rip)        # 6151d0 <memcpy@GLIBC_2.14>
  402546:	68 37 00 00 00       	pushq  $0x37
  40254b:	e9 70 fc ff ff       	jmpq   4021c0 <.plt>

0000000000402550 <tzset@plt>:
  402550:	ff 25 82 2c 21 00    	jmpq   *0x212c82(%rip)        # 6151d8 <tzset@GLIBC_2.2.5>
  402556:	68 38 00 00 00       	pushq  $0x38
  40255b:	e9 60 fc ff ff       	jmpq   4021c0 <.plt>

0000000000402560 <kill@plt>:
  402560:	ff 25 7a 2c 21 00    	jmpq   *0x212c7a(%rip)        # 6151e0 <kill@GLIBC_2.2.5>
  402566:	68 39 00 00 00       	pushq  $0x39
  40256b:	e9 50 fc ff ff       	jmpq   4021c0 <.plt>

0000000000402570 <time@plt>:
  402570:	ff 25 72 2c 21 00    	jmpq   *0x212c72(%rip)        # 6151e8 <time@GLIBC_2.2.5>
  402576:	68 3a 00 00 00       	pushq  $0x3a
  40257b:	e9 40 fc ff ff       	jmpq   4021c0 <.plt>

0000000000402580 <fileno@plt>:
  402580:	ff 25 6a 2c 21 00    	jmpq   *0x212c6a(%rip)        # 6151f0 <fileno@GLIBC_2.2.5>
  402586:	68 3b 00 00 00       	pushq  $0x3b
  40258b:	e9 30 fc ff ff       	jmpq   4021c0 <.plt>

0000000000402590 <inet_aton@plt>:
  402590:	ff 25 62 2c 21 00    	jmpq   *0x212c62(%rip)        # 6151f8 <inet_aton@GLIBC_2.2.5>
  402596:	68 3c 00 00 00       	pushq  $0x3c
  40259b:	e9 20 fc ff ff       	jmpq   4021c0 <.plt>

00000000004025a0 <__xstat@plt>:
  4025a0:	ff 25 5a 2c 21 00    	jmpq   *0x212c5a(%rip)        # 615200 <__xstat@GLIBC_2.2.5>
  4025a6:	68 3d 00 00 00       	pushq  $0x3d
  4025ab:	e9 10 fc ff ff       	jmpq   4021c0 <.plt>

00000000004025b0 <readdir@plt>:
  4025b0:	ff 25 52 2c 21 00    	jmpq   *0x212c52(%rip)        # 615208 <readdir@GLIBC_2.2.5>
  4025b6:	68 3e 00 00 00       	pushq  $0x3e
  4025bb:	e9 00 fc ff ff       	jmpq   4021c0 <.plt>

00000000004025c0 <tolower@plt>:
  4025c0:	ff 25 4a 2c 21 00    	jmpq   *0x212c4a(%rip)        # 615210 <tolower@GLIBC_2.2.5>
  4025c6:	68 3f 00 00 00       	pushq  $0x3f
  4025cb:	e9 f0 fb ff ff       	jmpq   4021c0 <.plt>

00000000004025d0 <malloc@plt>:
  4025d0:	ff 25 42 2c 21 00    	jmpq   *0x212c42(%rip)        # 615218 <malloc@GLIBC_2.2.5>
  4025d6:	68 40 00 00 00       	pushq  $0x40
  4025db:	e9 e0 fb ff ff       	jmpq   4021c0 <.plt>

00000000004025e0 <strncasecmp@plt>:
  4025e0:	ff 25 3a 2c 21 00    	jmpq   *0x212c3a(%rip)        # 615220 <strncasecmp@GLIBC_2.2.5>
  4025e6:	68 41 00 00 00       	pushq  $0x41
  4025eb:	e9 d0 fb ff ff       	jmpq   4021c0 <.plt>

00000000004025f0 <fflush@plt>:
  4025f0:	ff 25 32 2c 21 00    	jmpq   *0x212c32(%rip)        # 615228 <fflush@GLIBC_2.2.5>
  4025f6:	68 42 00 00 00       	pushq  $0x42
  4025fb:	e9 c0 fb ff ff       	jmpq   4021c0 <.plt>

0000000000402600 <nice@plt>:
  402600:	ff 25 2a 2c 21 00    	jmpq   *0x212c2a(%rip)        # 615230 <nice@GLIBC_2.2.5>
  402606:	68 43 00 00 00       	pushq  $0x43
  40260b:	e9 b0 fb ff ff       	jmpq   4021c0 <.plt>

0000000000402610 <__isoc99_sscanf@plt>:
  402610:	ff 25 22 2c 21 00    	jmpq   *0x212c22(%rip)        # 615238 <__isoc99_sscanf@GLIBC_2.7>
  402616:	68 44 00 00 00       	pushq  $0x44
  40261b:	e9 a0 fb ff ff       	jmpq   4021c0 <.plt>

0000000000402620 <syslog@plt>:
  402620:	ff 25 1a 2c 21 00    	jmpq   *0x212c1a(%rip)        # 615240 <syslog@GLIBC_2.2.5>
  402626:	68 45 00 00 00       	pushq  $0x45
  40262b:	e9 90 fb ff ff       	jmpq   4021c0 <.plt>

0000000000402630 <listen@plt>:
  402630:	ff 25 12 2c 21 00    	jmpq   *0x212c12(%rip)        # 615248 <listen@GLIBC_2.2.5>
  402636:	68 46 00 00 00       	pushq  $0x46
  40263b:	e9 80 fb ff ff       	jmpq   4021c0 <.plt>

0000000000402640 <clock_gettime@plt>:
  402640:	ff 25 0a 2c 21 00    	jmpq   *0x212c0a(%rip)        # 615250 <clock_gettime@GLIBC_2.2.5>
  402646:	68 47 00 00 00       	pushq  $0x47
  40264b:	e9 70 fb ff ff       	jmpq   4021c0 <.plt>

0000000000402650 <daemon@plt>:
  402650:	ff 25 02 2c 21 00    	jmpq   *0x212c02(%rip)        # 615258 <daemon@GLIBC_2.2.5>
  402656:	68 48 00 00 00       	pushq  $0x48
  40265b:	e9 60 fb ff ff       	jmpq   4021c0 <.plt>

0000000000402660 <strpbrk@plt>:
  402660:	ff 25 fa 2b 21 00    	jmpq   *0x212bfa(%rip)        # 615260 <strpbrk@GLIBC_2.2.5>
  402666:	68 49 00 00 00       	pushq  $0x49
  40266b:	e9 50 fb ff ff       	jmpq   4021c0 <.plt>

0000000000402670 <setrlimit@plt>:
  402670:	ff 25 f2 2b 21 00    	jmpq   *0x212bf2(%rip)        # 615268 <setrlimit@GLIBC_2.2.5>
  402676:	68 4a 00 00 00       	pushq  $0x4a
  40267b:	e9 40 fb ff ff       	jmpq   4021c0 <.plt>

0000000000402680 <realloc@plt>:
  402680:	ff 25 ea 2b 21 00    	jmpq   *0x212bea(%rip)        # 615270 <realloc@GLIBC_2.2.5>
  402686:	68 4b 00 00 00       	pushq  $0x4b
  40268b:	e9 30 fb ff ff       	jmpq   4021c0 <.plt>

0000000000402690 <fdopen@plt>:
  402690:	ff 25 e2 2b 21 00    	jmpq   *0x212be2(%rip)        # 615278 <fdopen@GLIBC_2.2.5>
  402696:	68 4c 00 00 00       	pushq  $0x4c
  40269b:	e9 20 fb ff ff       	jmpq   4021c0 <.plt>

00000000004026a0 <munmap@plt>:
  4026a0:	ff 25 da 2b 21 00    	jmpq   *0x212bda(%rip)        # 615280 <munmap@GLIBC_2.2.5>
  4026a6:	68 4d 00 00 00       	pushq  $0x4d
  4026ab:	e9 10 fb ff ff       	jmpq   4021c0 <.plt>

00000000004026b0 <poll@plt>:
  4026b0:	ff 25 d2 2b 21 00    	jmpq   *0x212bd2(%rip)        # 615288 <poll@GLIBC_2.2.5>
  4026b6:	68 4e 00 00 00       	pushq  $0x4e
  4026bb:	e9 00 fb ff ff       	jmpq   4021c0 <.plt>

00000000004026c0 <chmod@plt>:
  4026c0:	ff 25 ca 2b 21 00    	jmpq   *0x212bca(%rip)        # 615290 <chmod@GLIBC_2.2.5>
  4026c6:	68 4f 00 00 00       	pushq  $0x4f
  4026cb:	e9 f0 fa ff ff       	jmpq   4021c0 <.plt>

00000000004026d0 <bind@plt>:
  4026d0:	ff 25 c2 2b 21 00    	jmpq   *0x212bc2(%rip)        # 615298 <bind@GLIBC_2.2.5>
  4026d6:	68 50 00 00 00       	pushq  $0x50
  4026db:	e9 e0 fa ff ff       	jmpq   4021c0 <.plt>

00000000004026e0 <sigset@plt>:
  4026e0:	ff 25 ba 2b 21 00    	jmpq   *0x212bba(%rip)        # 6152a0 <sigset@GLIBC_2.2.5>
  4026e6:	68 51 00 00 00       	pushq  $0x51
  4026eb:	e9 d0 fa ff ff       	jmpq   4021c0 <.plt>

00000000004026f0 <strftime@plt>:
  4026f0:	ff 25 b2 2b 21 00    	jmpq   *0x212bb2(%rip)        # 6152a8 <strftime@GLIBC_2.2.5>
  4026f6:	68 52 00 00 00       	pushq  $0x52
  4026fb:	e9 c0 fa ff ff       	jmpq   4021c0 <.plt>

0000000000402700 <memmove@plt>:
  402700:	ff 25 aa 2b 21 00    	jmpq   *0x212baa(%rip)        # 6152b0 <memmove@GLIBC_2.2.5>
  402706:	68 53 00 00 00       	pushq  $0x53
  40270b:	e9 b0 fa ff ff       	jmpq   4021c0 <.plt>

0000000000402710 <setgid@plt>:
  402710:	ff 25 a2 2b 21 00    	jmpq   *0x212ba2(%rip)        # 6152b8 <setgid@GLIBC_2.2.5>
  402716:	68 54 00 00 00       	pushq  $0x54
  40271b:	e9 a0 fa ff ff       	jmpq   4021c0 <.plt>

0000000000402720 <waitpid@plt>:
  402720:	ff 25 9a 2b 21 00    	jmpq   *0x212b9a(%rip)        # 6152c0 <waitpid@GLIBC_2.2.5>
  402726:	68 55 00 00 00       	pushq  $0x55
  40272b:	e9 90 fa ff ff       	jmpq   4021c0 <.plt>

0000000000402730 <atol@plt>:
  402730:	ff 25 92 2b 21 00    	jmpq   *0x212b92(%rip)        # 6152c8 <atol@GLIBC_2.2.5>
  402736:	68 56 00 00 00       	pushq  $0x56
  40273b:	e9 80 fa ff ff       	jmpq   4021c0 <.plt>

0000000000402740 <open@plt>:
  402740:	ff 25 8a 2b 21 00    	jmpq   *0x212b8a(%rip)        # 6152d0 <open@GLIBC_2.2.5>
  402746:	68 57 00 00 00       	pushq  $0x57
  40274b:	e9 70 fa ff ff       	jmpq   4021c0 <.plt>

0000000000402750 <fchown@plt>:
  402750:	ff 25 82 2b 21 00    	jmpq   *0x212b82(%rip)        # 6152d8 <fchown@GLIBC_2.2.5>
  402756:	68 58 00 00 00       	pushq  $0x58
  40275b:	e9 60 fa ff ff       	jmpq   4021c0 <.plt>

0000000000402760 <fopen@plt>:
  402760:	ff 25 7a 2b 21 00    	jmpq   *0x212b7a(%rip)        # 6152e0 <fopen@GLIBC_2.2.5>
  402766:	68 59 00 00 00       	pushq  $0x59
  40276b:	e9 50 fa ff ff       	jmpq   4021c0 <.plt>

0000000000402770 <perror@plt>:
  402770:	ff 25 72 2b 21 00    	jmpq   *0x212b72(%rip)        # 6152e8 <perror@GLIBC_2.2.5>
  402776:	68 5a 00 00 00       	pushq  $0x5a
  40277b:	e9 40 fa ff ff       	jmpq   4021c0 <.plt>

0000000000402780 <gmtime@plt>:
  402780:	ff 25 6a 2b 21 00    	jmpq   *0x212b6a(%rip)        # 6152f0 <gmtime@GLIBC_2.2.5>
  402786:	68 5b 00 00 00       	pushq  $0x5b
  40278b:	e9 30 fa ff ff       	jmpq   4021c0 <.plt>

0000000000402790 <accept@plt>:
  402790:	ff 25 62 2b 21 00    	jmpq   *0x212b62(%rip)        # 6152f8 <accept@GLIBC_2.2.5>
  402796:	68 5c 00 00 00       	pushq  $0x5c
  40279b:	e9 20 fa ff ff       	jmpq   4021c0 <.plt>

00000000004027a0 <getsockname@plt>:
  4027a0:	ff 25 5a 2b 21 00    	jmpq   *0x212b5a(%rip)        # 615300 <getsockname@GLIBC_2.2.5>
  4027a6:	68 5d 00 00 00       	pushq  $0x5d
  4027ab:	e9 10 fa ff ff       	jmpq   4021c0 <.plt>

00000000004027b0 <atoi@plt>:
  4027b0:	ff 25 52 2b 21 00    	jmpq   *0x212b52(%rip)        # 615308 <atoi@GLIBC_2.2.5>
  4027b6:	68 5e 00 00 00       	pushq  $0x5e
  4027bb:	e9 00 fa ff ff       	jmpq   4021c0 <.plt>

00000000004027c0 <strcat@plt>:
  4027c0:	ff 25 4a 2b 21 00    	jmpq   *0x212b4a(%rip)        # 615310 <strcat@GLIBC_2.2.5>
  4027c6:	68 5f 00 00 00       	pushq  $0x5f
  4027cb:	e9 f0 f9 ff ff       	jmpq   4021c0 <.plt>

00000000004027d0 <openlog@plt>:
  4027d0:	ff 25 42 2b 21 00    	jmpq   *0x212b42(%rip)        # 615318 <openlog@GLIBC_2.2.5>
  4027d6:	68 60 00 00 00       	pushq  $0x60
  4027db:	e9 e0 f9 ff ff       	jmpq   4021c0 <.plt>

00000000004027e0 <gethostname@plt>:
  4027e0:	ff 25 3a 2b 21 00    	jmpq   *0x212b3a(%rip)        # 615320 <gethostname@GLIBC_2.2.5>
  4027e6:	68 61 00 00 00       	pushq  $0x61
  4027eb:	e9 d0 f9 ff ff       	jmpq   4021c0 <.plt>

00000000004027f0 <sprintf@plt>:
  4027f0:	ff 25 32 2b 21 00    	jmpq   *0x212b32(%rip)        # 615328 <sprintf@GLIBC_2.2.5>
  4027f6:	68 62 00 00 00       	pushq  $0x62
  4027fb:	e9 c0 f9 ff ff       	jmpq   4021c0 <.plt>

0000000000402800 <exit@plt>:
  402800:	ff 25 2a 2b 21 00    	jmpq   *0x212b2a(%rip)        # 615330 <exit@GLIBC_2.2.5>
  402806:	68 63 00 00 00       	pushq  $0x63
  40280b:	e9 b0 f9 ff ff       	jmpq   4021c0 <.plt>

0000000000402810 <fwrite@plt>:
  402810:	ff 25 22 2b 21 00    	jmpq   *0x212b22(%rip)        # 615338 <fwrite@GLIBC_2.2.5>
  402816:	68 64 00 00 00       	pushq  $0x64
  40281b:	e9 a0 f9 ff ff       	jmpq   4021c0 <.plt>

0000000000402820 <getrlimit@plt>:
  402820:	ff 25 1a 2b 21 00    	jmpq   *0x212b1a(%rip)        # 615340 <getrlimit@GLIBC_2.2.5>
  402826:	68 65 00 00 00       	pushq  $0x65
  40282b:	e9 90 f9 ff ff       	jmpq   4021c0 <.plt>

0000000000402830 <setuid@plt>:
  402830:	ff 25 12 2b 21 00    	jmpq   *0x212b12(%rip)        # 615348 <setuid@GLIBC_2.2.5>
  402836:	68 66 00 00 00       	pushq  $0x66
  40283b:	e9 80 f9 ff ff       	jmpq   4021c0 <.plt>

0000000000402840 <getaddrinfo@plt>:
  402840:	ff 25 0a 2b 21 00    	jmpq   *0x212b0a(%rip)        # 615350 <getaddrinfo@GLIBC_2.2.5>
  402846:	68 67 00 00 00       	pushq  $0x67
  40284b:	e9 70 f9 ff ff       	jmpq   4021c0 <.plt>

0000000000402850 <strdup@plt>:
  402850:	ff 25 02 2b 21 00    	jmpq   *0x212b02(%rip)        # 615358 <strdup@GLIBC_2.2.5>
  402856:	68 68 00 00 00       	pushq  $0x68
  40285b:	e9 60 f9 ff ff       	jmpq   4021c0 <.plt>

0000000000402860 <initgroups@plt>:
  402860:	ff 25 fa 2a 21 00    	jmpq   *0x212afa(%rip)        # 615360 <initgroups@GLIBC_2.2.5>
  402866:	68 69 00 00 00       	pushq  $0x69
  40286b:	e9 50 f9 ff ff       	jmpq   4021c0 <.plt>

0000000000402870 <sleep@plt>:
  402870:	ff 25 f2 2a 21 00    	jmpq   *0x212af2(%rip)        # 615368 <sleep@GLIBC_2.2.5>
  402876:	68 6a 00 00 00       	pushq  $0x6a
  40287b:	e9 40 f9 ff ff       	jmpq   4021c0 <.plt>

0000000000402880 <fork@plt>:
  402880:	ff 25 ea 2a 21 00    	jmpq   *0x212aea(%rip)        # 615370 <fork@GLIBC_2.2.5>
  402886:	68 6b 00 00 00       	pushq  $0x6b
  40288b:	e9 30 f9 ff ff       	jmpq   4021c0 <.plt>

0000000000402890 <strstr@plt>:
  402890:	ff 25 e2 2a 21 00    	jmpq   *0x212ae2(%rip)        # 615378 <strstr@GLIBC_2.2.5>
  402896:	68 6c 00 00 00       	pushq  $0x6c
  40289b:	e9 20 f9 ff ff       	jmpq   4021c0 <.plt>

00000000004028a0 <getdtablesize@plt>:
  4028a0:	ff 25 da 2a 21 00    	jmpq   *0x212ada(%rip)        # 615380 <getdtablesize@GLIBC_2.2.5>
  4028a6:	68 6d 00 00 00       	pushq  $0x6d
  4028ab:	e9 10 f9 ff ff       	jmpq   4021c0 <.plt>

00000000004028b0 <__ctype_tolower_loc@plt>:
  4028b0:	ff 25 d2 2a 21 00    	jmpq   *0x212ad2(%rip)        # 615388 <__ctype_tolower_loc@GLIBC_2.3>
  4028b6:	68 6e 00 00 00       	pushq  $0x6e
  4028bb:	e9 00 f9 ff ff       	jmpq   4021c0 <.plt>

00000000004028c0 <__ctype_b_loc@plt>:
  4028c0:	ff 25 ca 2a 21 00    	jmpq   *0x212aca(%rip)        # 615390 <__ctype_b_loc@GLIBC_2.3>
  4028c6:	68 6f 00 00 00       	pushq  $0x6f
  4028cb:	e9 f0 f8 ff ff       	jmpq   4021c0 <.plt>

00000000004028d0 <freeaddrinfo@plt>:
  4028d0:	ff 25 c2 2a 21 00    	jmpq   *0x212ac2(%rip)        # 615398 <freeaddrinfo@GLIBC_2.2.5>
  4028d6:	68 70 00 00 00       	pushq  $0x70
  4028db:	e9 e0 f8 ff ff       	jmpq   4021c0 <.plt>

00000000004028e0 <socket@plt>:
  4028e0:	ff 25 ba 2a 21 00    	jmpq   *0x212aba(%rip)        # 6153a0 <socket@GLIBC_2.2.5>
  4028e6:	68 71 00 00 00       	pushq  $0x71
  4028eb:	e9 d0 f8 ff ff       	jmpq   4021c0 <.plt>

Disassembly of section .plt.got:

00000000004028f0 <.plt.got>:
  4028f0:	ff 25 02 27 21 00    	jmpq   *0x212702(%rip)        # 614ff8 <__gmon_start__>
  4028f6:	66 90                	xchg   %ax,%ax

Disassembly of section .text:

0000000000402900 <main>:
    }


int
main( int argc, char** argv )
    {
  402900:	41 57                	push   %r15
  402902:	41 56                	push   %r14
  402904:	41 55                	push   %r13
  402906:	41 54                	push   %r12
  402908:	41 89 fc             	mov    %edi,%r12d
  40290b:	55                   	push   %rbp
  40290c:	48 89 f5             	mov    %rsi,%rbp
  40290f:	53                   	push   %rbx
  402910:	48 81 ec 48 11 00 00 	sub    $0x1148,%rsp
    httpd_sockaddr sa4;
    httpd_sockaddr sa6;
    int gotv4, gotv6;
    struct timeval tv;

    argv0 = argv[0];
  402917:	48 8b 1e             	mov    (%rsi),%rbx

    cp = strrchr( argv0, '/' );
  40291a:	be 2f 00 00 00       	mov    $0x2f,%esi
  40291f:	48 89 df             	mov    %rbx,%rdi
    argv0 = argv[0];
  402922:	48 89 1d cf 46 21 00 	mov    %rbx,0x2146cf(%rip)        # 616ff8 <argv0>
    cp = strrchr( argv0, '/' );
  402929:	e8 c2 fa ff ff       	callq  4023f0 <strrchr@plt>
    if ( cp != (char*) 0 )
	++cp;
    else
	cp = argv0;
    openlog( cp, LOG_NDELAY|LOG_PID, LOG_FACILITY );
  40292e:	be 09 00 00 00       	mov    $0x9,%esi
	++cp;
  402933:	48 8d 50 01          	lea    0x1(%rax),%rdx
  402937:	48 85 c0             	test   %rax,%rax
  40293a:	48 0f 45 da          	cmovne %rdx,%rbx
    openlog( cp, LOG_NDELAY|LOG_PID, LOG_FACILITY );
  40293e:	ba 18 00 00 00       	mov    $0x18,%edx
  402943:	48 89 df             	mov    %rbx,%rdi

    /* Read zone info now, in case we chroot(). */
    tzset();

    /* Look up hostname now, in case we chroot(). */
    lookup_hostname( &sa4, sizeof(sa4), &gotv4, &sa6, sizeof(sa6), &gotv6 );
  402946:	48 8d 9c 24 b0 00 00 	lea    0xb0(%rsp),%rbx
  40294d:	00 
    openlog( cp, LOG_NDELAY|LOG_PID, LOG_FACILITY );
  40294e:	e8 7d fe ff ff       	callq  4027d0 <openlog@plt>
    parse_args( argc, argv );
  402953:	44 89 e7             	mov    %r12d,%edi
  402956:	48 89 ee             	mov    %rbp,%rsi
    lookup_hostname( &sa4, sizeof(sa4), &gotv4, &sa6, sizeof(sa6), &gotv6 );
  402959:	4c 8d 64 24 30       	lea    0x30(%rsp),%r12
    parse_args( argc, argv );
  40295e:	e8 1d 18 00 00       	callq  404180 <parse_args>
    tzset();
  402963:	e8 e8 fb ff ff       	callq  402550 <tzset@plt>
    lookup_hostname( &sa4, sizeof(sa4), &gotv4, &sa6, sizeof(sa6), &gotv6 );
  402968:	48 8d 4c 24 1c       	lea    0x1c(%rsp),%rcx
  40296d:	48 89 da             	mov    %rbx,%rdx
  402970:	4c 89 e7             	mov    %r12,%rdi
  402973:	48 8d 74 24 18       	lea    0x18(%rsp),%rsi
  402978:	e8 33 30 00 00       	callq  4059b0 <lookup_hostname.constprop.1>
    if ( ! ( gotv4 || gotv6 ) )
  40297d:	8b 44 24 18          	mov    0x18(%rsp),%eax
  402981:	0b 44 24 1c          	or     0x1c(%rsp),%eax
  402985:	0f 84 82 06 00 00    	je     40300d <main+0x70d>

    /* Throttle file. */
    numthrottles = 0;
    maxthrottles = 0;
    throttles = (throttletab*) 0;
    if ( throttlefile != (char*) 0 )
  40298b:	48 8b 3d fe 45 21 00 	mov    0x2145fe(%rip),%rdi        # 616f90 <throttlefile>
    numthrottles = 0;
  402992:	c7 05 b8 45 21 00 00 	movl   $0x0,0x2145b8(%rip)        # 616f54 <numthrottles>
  402999:	00 00 00 
    maxthrottles = 0;
  40299c:	c7 05 aa 45 21 00 00 	movl   $0x0,0x2145aa(%rip)        # 616f50 <maxthrottles>
  4029a3:	00 00 00 
    throttles = (throttletab*) 0;
  4029a6:	48 c7 05 a7 45 21 00 	movq   $0x0,0x2145a7(%rip)        # 616f58 <throttles>
  4029ad:	00 00 00 00 
    if ( throttlefile != (char*) 0 )
  4029b1:	48 85 ff             	test   %rdi,%rdi
  4029b4:	74 05                	je     4029bb <main+0xbb>
	read_throttlefile( throttlefile );
  4029b6:	e8 a5 1d 00 00       	callq  404760 <read_throttlefile>

    /* If we're root and we're going to become another user, get the uid/gid
    ** now.
    */
    if ( getuid() == 0 )
  4029bb:	e8 d0 f9 ff ff       	callq  402390 <getuid@plt>
    gid_t gid = 32767;
  4029c0:	41 be ff 7f 00 00    	mov    $0x7fff,%r14d
    uid_t uid = 32767;
  4029c6:	41 bf ff 7f 00 00    	mov    $0x7fff,%r15d
    if ( getuid() == 0 )
  4029cc:	85 c0                	test   %eax,%eax
  4029ce:	0f 84 6b 05 00 00    	je     402f3f <main+0x63f>
	uid = pwd->pw_uid;
	gid = pwd->pw_gid;
	}

    /* Log file. */
    if ( logfile != (char*) 0 )
  4029d4:	48 8b 2d bd 45 21 00 	mov    0x2145bd(%rip),%rbp        # 616f98 <logfile>
  4029db:	48 85 ed             	test   %rbp,%rbp
  4029de:	0f 84 7d 05 00 00    	je     402f61 <main+0x661>
	{
	if ( strcmp( logfile, "/dev/null" ) == 0 )
  4029e4:	be 0e f1 40 00       	mov    $0x40f10e,%esi
  4029e9:	48 89 ef             	mov    %rbp,%rdi
  4029ec:	e8 1f fb ff ff       	callq  402510 <strcmp@plt>
  4029f1:	85 c0                	test   %eax,%eax
  4029f3:	0f 85 04 05 00 00    	jne    402efd <main+0x5fd>
	    {
	    no_log = 1;
  4029f9:	c7 05 d1 45 21 00 01 	movl   $0x1,0x2145d1(%rip)        # 616fd4 <no_log>
  402a00:	00 00 00 
	    logfp = (FILE*) 0;
  402a03:	45 31 ed             	xor    %r13d,%r13d
	}
    else
	logfp = (FILE*) 0;

    /* Switch directories if requested. */
    if ( dir != (char*) 0 )
  402a06:	48 8b 3d db 45 21 00 	mov    0x2145db(%rip),%rdi        # 616fe8 <dir>
  402a0d:	48 85 ff             	test   %rdi,%rdi
  402a10:	74 0d                	je     402a1f <main+0x11f>
	{
	if ( chdir( dir ) < 0 )
  402a12:	e8 69 f9 ff ff       	callq  402380 <chdir@plt>
  402a17:	85 c0                	test   %eax,%eax
  402a19:	0f 88 23 06 00 00    	js     403042 <main+0x742>
	    }
	}
#endif /* USE_USER_DIR */

    /* Get current directory. */
    (void) getcwd( cwd, sizeof(cwd) - 1 );
  402a1f:	48 8d ac 24 30 01 00 	lea    0x130(%rsp),%rbp
  402a26:	00 
  402a27:	be 00 10 00 00       	mov    $0x1000,%esi
  402a2c:	48 89 ef             	mov    %rbp,%rdi
  402a2f:	e8 dc f9 ff ff       	callq  402410 <getcwd@plt>
    if ( cwd[strlen( cwd ) - 1] != '/' )
  402a34:	48 83 c9 ff          	or     $0xffffffffffffffff,%rcx
  402a38:	31 c0                	xor    %eax,%eax
  402a3a:	48 89 ef             	mov    %rbp,%rdi
  402a3d:	f2 ae                	repnz scas %es:(%rdi),%al
  402a3f:	48 89 ca             	mov    %rcx,%rdx
  402a42:	48 f7 d2             	not    %rdx
  402a45:	48 89 d1             	mov    %rdx,%rcx
  402a48:	48 83 e9 01          	sub    $0x1,%rcx
  402a4c:	80 bc 0c 2f 01 00 00 	cmpb   $0x2f,0x12f(%rsp,%rcx,1)
  402a53:	2f 
  402a54:	74 07                	je     402a5d <main+0x15d>
	(void) strcat( cwd, "/" );
  402a56:	66 c7 44 0d 00 2f 00 	movw   $0x2f,0x0(%rbp,%rcx,1)

    if ( ! debug )
  402a5d:	83 3d 90 45 21 00 00 	cmpl   $0x0,0x214590(%rip)        # 616ff4 <debug>
  402a64:	0f 85 cb 04 00 00    	jne    402f35 <main+0x635>
	{
	/* We're not going to use stdin stdout or stderr from here on, so close
	** them to save file descriptors.
	*/
	(void) fclose( stdin );
  402a6a:	48 8b 3d 97 44 21 00 	mov    0x214497(%rip),%rdi        # 616f08 <stdin@@GLIBC_2.2.5>
  402a71:	e8 aa f8 ff ff       	callq  402320 <fclose@plt>
	if ( logfp != stdout )
  402a76:	48 8b 3d 83 44 21 00 	mov    0x214483(%rip),%rdi        # 616f00 <stdout@@GLIBC_2.2.5>
  402a7d:	4c 39 ef             	cmp    %r13,%rdi
  402a80:	74 05                	je     402a87 <main+0x187>
	    (void) fclose( stdout );
  402a82:	e8 99 f8 ff ff       	callq  402320 <fclose@plt>
	(void) fclose( stderr );
  402a87:	48 8b 3d 82 44 21 00 	mov    0x214482(%rip),%rdi        # 616f10 <stderr@@GLIBC_2.2.5>
  402a8e:	e8 8d f8 ff ff       	callq  402320 <fclose@plt>

	/* Daemonize - make ourselves a subprocess. */
#ifdef HAVE_DAEMON
	if ( daemon( 1, 1 ) < 0 )
  402a93:	be 01 00 00 00       	mov    $0x1,%esi
  402a98:	bf 01 00 00 00       	mov    $0x1,%edi
  402a9d:	e8 ae fb ff ff       	callq  402650 <daemon@plt>
	    {
	    syslog( LOG_CRIT, "daemon - %m" );
  402aa2:	be 3b f1 40 00       	mov    $0x40f13b,%esi
	if ( daemon( 1, 1 ) < 0 )
  402aa7:	85 c0                	test   %eax,%eax
  402aa9:	0f 88 70 04 00 00    	js     402f1f <main+0x61f>
#ifdef HAVE_SETSID
	(void) setsid();
#endif /* HAVE_SETSID */
	}

    if ( pidfile != (char*) 0 )
  402aaf:	48 8b 3d ca 44 21 00 	mov    0x2144ca(%rip),%rdi        # 616f80 <pidfile>
  402ab6:	48 85 ff             	test   %rdi,%rdi
  402ab9:	74 3d                	je     402af8 <main+0x1f8>
	{
	/* Write the PID file. */
	FILE* pidfp = fopen( pidfile, "w" );
  402abb:	be 04 02 41 00       	mov    $0x410204,%esi
  402ac0:	e8 9b fc ff ff       	callq  402760 <fopen@plt>
	if ( pidfp == (FILE*) 0 )
  402ac5:	48 85 c0             	test   %rax,%rax
  402ac8:	0f 84 99 05 00 00    	je     403067 <main+0x767>
  402ace:	48 89 04 24          	mov    %rax,(%rsp)
	    {
	    syslog( LOG_CRIT, "%.80s - %m", pidfile );
	    exit( 1 );
	    }
	(void) fprintf( pidfp, "%d\n", (int) getpid() );
  402ad2:	e8 39 f8 ff ff       	callq  402310 <getpid@plt>
  402ad7:	48 8b 0c 24          	mov    (%rsp),%rcx
  402adb:	be 47 f1 40 00       	mov    $0x40f147,%esi
  402ae0:	89 c2                	mov    %eax,%edx
  402ae2:	31 c0                	xor    %eax,%eax
  402ae4:	48 89 cf             	mov    %rcx,%rdi
  402ae7:	e8 44 fa ff ff       	callq  402530 <fprintf@plt>
	(void) fclose( pidfp );
  402aec:	48 8b 0c 24          	mov    (%rsp),%rcx
  402af0:	48 89 cf             	mov    %rcx,%rdi
  402af3:	e8 28 f8 ff ff       	callq  402320 <fclose@plt>
	}

    /* Initialize the fdwatch package.  Have to do this before chroot,
    ** if /dev/poll is used.
    */
    max_connects = fdwatch_get_nfiles();
  402af8:	e8 93 33 00 00       	callq  405e90 <fdwatch_get_nfiles>
  402afd:	89 05 3d 44 21 00    	mov    %eax,0x21443d(%rip)        # 616f40 <max_connects>
    if ( max_connects < 0 )
  402b03:	85 c0                	test   %eax,%eax
  402b05:	0f 88 0f 04 00 00    	js     402f1a <main+0x61a>
	{
	syslog( LOG_CRIT, "fdwatch initialization failure" );
	exit( 1 );
	}
    max_connects -= SPARE_FDS;
  402b0b:	83 e8 0a             	sub    $0xa,%eax

    /* Chroot if requested. */
    if ( do_chroot )
  402b0e:	83 3d c3 44 21 00 00 	cmpl   $0x0,0x2144c3(%rip)        # 616fd8 <do_chroot>
    max_connects -= SPARE_FDS;
  402b15:	89 05 25 44 21 00    	mov    %eax,0x214425(%rip)        # 616f40 <max_connects>
    if ( do_chroot )
  402b1b:	0f 85 68 05 00 00    	jne    403089 <main+0x789>
	    exit( 1 );
	    }
	}

    /* Switch directories again if requested. */
    if ( data_dir != (char*) 0 )
  402b21:	48 8b 3d b8 44 21 00 	mov    0x2144b8(%rip),%rdi        # 616fe0 <data_dir>
  402b28:	48 85 ff             	test   %rdi,%rdi
  402b2b:	74 0d                	je     402b3a <main+0x23a>
	{
	if ( chdir( data_dir ) < 0 )
  402b2d:	e8 4e f8 ff ff       	callq  402380 <chdir@plt>
  402b32:	85 c0                	test   %eax,%eax
  402b34:	0f 88 09 06 00 00    	js     403143 <main+0x843>
	    }
	}

    /* Set up to catch signals. */
#ifdef HAVE_SIGSET
    (void) sigset( SIGTERM, handle_term );
  402b3a:	be 30 50 40 00       	mov    $0x405030,%esi
  402b3f:	bf 0f 00 00 00       	mov    $0xf,%edi
  402b44:	31 c0                	xor    %eax,%eax
  402b46:	e8 95 fb ff ff       	callq  4026e0 <sigset@plt>
    (void) sigset( SIGINT, handle_term );
  402b4b:	be 30 50 40 00       	mov    $0x405030,%esi
  402b50:	bf 02 00 00 00       	mov    $0x2,%edi
  402b55:	31 c0                	xor    %eax,%eax
  402b57:	e8 84 fb ff ff       	callq  4026e0 <sigset@plt>
    (void) sigset( SIGCHLD, handle_chld );
  402b5c:	be 20 3a 40 00       	mov    $0x403a20,%esi
  402b61:	bf 11 00 00 00       	mov    $0x11,%edi
  402b66:	31 c0                	xor    %eax,%eax
  402b68:	e8 73 fb ff ff       	callq  4026e0 <sigset@plt>
    (void) sigset( SIGPIPE, SIG_IGN );          /* get EPIPE instead */
  402b6d:	be 01 00 00 00       	mov    $0x1,%esi
  402b72:	bf 0d 00 00 00       	mov    $0xd,%edi
  402b77:	31 c0                	xor    %eax,%eax
  402b79:	e8 62 fb ff ff       	callq  4026e0 <sigset@plt>
    (void) sigset( SIGHUP, handle_hup );
  402b7e:	be 80 35 40 00       	mov    $0x403580,%esi
  402b83:	bf 01 00 00 00       	mov    $0x1,%edi
  402b88:	31 c0                	xor    %eax,%eax
  402b8a:	e8 51 fb ff ff       	callq  4026e0 <sigset@plt>
    (void) sigset( SIGUSR1, handle_usr1 );
  402b8f:	be f0 4f 40 00       	mov    $0x404ff0,%esi
  402b94:	bf 0a 00 00 00       	mov    $0xa,%edi
  402b99:	31 c0                	xor    %eax,%eax
  402b9b:	e8 40 fb ff ff       	callq  4026e0 <sigset@plt>
    (void) sigset( SIGUSR2, handle_usr2 );
  402ba0:	be 90 39 40 00       	mov    $0x403990,%esi
  402ba5:	bf 0c 00 00 00       	mov    $0xc,%edi
  402baa:	31 c0                	xor    %eax,%eax
  402bac:	e8 2f fb ff ff       	callq  4026e0 <sigset@plt>
    (void) sigset( SIGALRM, handle_alrm );
  402bb1:	be d0 39 40 00       	mov    $0x4039d0,%esi
  402bb6:	bf 0e 00 00 00       	mov    $0xe,%edi
  402bbb:	31 c0                	xor    %eax,%eax
  402bbd:	e8 1e fb ff ff       	callq  4026e0 <sigset@plt>
    (void) signal( SIGALRM, handle_alrm );
#endif /* HAVE_SIGSET */
    got_hup = 0;
    got_usr1 = 0;
    watchdog_flag = 0;
    (void) alarm( OCCASIONAL_TIME * 3 );
  402bc2:	bf 68 01 00 00       	mov    $0x168,%edi
    got_hup = 0;
  402bc7:	c7 05 5b 43 21 00 00 	movl   $0x0,0x21435b(%rip)        # 616f2c <got_hup>
  402bce:	00 00 00 
    got_usr1 = 0;
  402bd1:	c7 05 4d 43 21 00 00 	movl   $0x0,0x21434d(%rip)        # 616f28 <got_usr1>
  402bd8:	00 00 00 
    watchdog_flag = 0;
  402bdb:	c7 05 3f 43 21 00 00 	movl   $0x0,0x21433f(%rip)        # 616f24 <watchdog_flag>
  402be2:	00 00 00 
    (void) alarm( OCCASIONAL_TIME * 3 );
  402be5:	e8 36 f8 ff ff       	callq  402420 <alarm@plt>

    /* Initialize the timer package. */
    tmr_init();
  402bea:	e8 a1 ab 00 00       	callq  40d790 <tmr_init>

    /* Initialize the HTTP layer.  Got to do this before giving up root,
    ** so that we can bind to a privileged port.
    */
    hs = httpd_initialize(
  402bef:	8b 05 b3 43 21 00    	mov    0x2143b3(%rip),%eax        # 616fa8 <no_empty_referers>
  402bf5:	31 f6                	xor    %esi,%esi
  402bf7:	48 89 da             	mov    %rbx,%rdx
  402bfa:	83 7c 24 1c 00       	cmpl   $0x0,0x1c(%rsp)
  402bff:	0f b7 0d ea 43 21 00 	movzwl 0x2143ea(%rip),%ecx        # 616ff0 <port>
  402c06:	48 0f 44 d6          	cmove  %rsi,%rdx
  402c0a:	83 7c 24 18 00       	cmpl   $0x0,0x18(%rsp)
  402c0f:	50                   	push   %rax
  402c10:	8b 05 b2 43 21 00    	mov    0x2143b2(%rip),%eax        # 616fc8 <do_global_passwd>
  402c16:	ff 35 84 43 21 00    	pushq  0x214384(%rip)        # 616fa0 <local_pattern>
  402c1c:	49 0f 45 f4          	cmovne %r12,%rsi
  402c20:	44 8b 0d 91 43 21 00 	mov    0x214391(%rip),%r9d        # 616fb8 <cgi_limit>
  402c27:	ff 35 83 43 21 00    	pushq  0x214383(%rip)        # 616fb0 <url_pattern>
  402c2d:	4c 8b 05 8c 43 21 00 	mov    0x21438c(%rip),%r8        # 616fc0 <cgi_pattern>
  402c34:	50                   	push   %rax
  402c35:	8b 05 91 43 21 00    	mov    0x214391(%rip),%eax        # 616fcc <do_vhost>
  402c3b:	48 8b 3d 46 43 21 00 	mov    0x214346(%rip),%rdi        # 616f88 <hostname>
  402c42:	50                   	push   %rax
  402c43:	8b 05 87 43 21 00    	mov    0x214387(%rip),%eax        # 616fd0 <no_symlink_check>
  402c49:	50                   	push   %rax
  402c4a:	8b 05 84 43 21 00    	mov    0x214384(%rip),%eax        # 616fd4 <no_log>
  402c50:	41 55                	push   %r13
  402c52:	50                   	push   %rax
  402c53:	8b 05 07 43 21 00    	mov    0x214307(%rip),%eax        # 616f60 <max_age>
  402c59:	55                   	push   %rbp
  402c5a:	50                   	push   %rax
  402c5b:	ff 35 07 43 21 00    	pushq  0x214307(%rip)        # 616f68 <p3p>
  402c61:	ff 35 09 43 21 00    	pushq  0x214309(%rip)        # 616f70 <charset>
  402c67:	e8 d4 64 00 00       	callq  409140 <httpd_initialize>
	hostname,
	gotv4 ? &sa4 : (httpd_sockaddr*) 0, gotv6 ? &sa6 : (httpd_sockaddr*) 0,
	port, cgi_pattern, cgi_limit, charset, p3p, max_age, cwd, no_log, logfp,
	no_symlink_check, do_vhost, do_global_passwd, url_pattern,
	local_pattern, no_empty_referers );
    if ( hs == (httpd_server*) 0 )
  402c6c:	48 83 c4 60          	add    $0x60,%rsp
    hs = httpd_initialize(
  402c70:	48 89 05 b9 42 21 00 	mov    %rax,0x2142b9(%rip)        # 616f30 <hs>
    if ( hs == (httpd_server*) 0 )
  402c77:	48 85 c0             	test   %rax,%rax
  402c7a:	0f 84 ab 02 00 00    	je     402f2b <main+0x62b>
	exit( 1 );

    /* Set up the occasional timer. */
    if ( tmr_create( (struct timeval*) 0, occasional, JunkClientData, OCCASIONAL_TIME * 1000L, 1 ) == (Timer*) 0 )
  402c80:	48 8b 15 61 4b 21 00 	mov    0x214b61(%rip),%rdx        # 6177e8 <JunkClientData>
  402c87:	31 ff                	xor    %edi,%edi
  402c89:	41 b8 01 00 00 00    	mov    $0x1,%r8d
  402c8f:	b9 c0 d4 01 00       	mov    $0x1d4c0,%ecx
  402c94:	be b0 39 40 00       	mov    $0x4039b0,%esi
  402c99:	e8 b2 b0 00 00       	callq  40dd50 <tmr_create>
  402c9e:	48 85 c0             	test   %rax,%rax
  402ca1:	0f 84 4b 05 00 00    	je     4031f2 <main+0x8f2>
	{
	syslog( LOG_CRIT, "tmr_create(occasional) failed" );
	exit( 1 );
	}
    /* Set up the idle timer. */
    if ( tmr_create( (struct timeval*) 0, idle, JunkClientData, 5 * 1000L, 1 ) == (Timer*) 0 )
  402ca7:	48 8b 15 3a 4b 21 00 	mov    0x214b3a(%rip),%rdx        # 6177e8 <JunkClientData>
  402cae:	31 ff                	xor    %edi,%edi
  402cb0:	41 b8 01 00 00 00    	mov    $0x1,%r8d
  402cb6:	b9 88 13 00 00       	mov    $0x1388,%ecx
  402cbb:	be d0 54 40 00       	mov    $0x4054d0,%esi
  402cc0:	e8 8b b0 00 00       	callq  40dd50 <tmr_create>
  402cc5:	48 85 c0             	test   %rax,%rax
  402cc8:	0f 84 1b 07 00 00    	je     4033e9 <main+0xae9>
	{
	syslog( LOG_CRIT, "tmr_create(idle) failed" );
	exit( 1 );
	}
    if ( numthrottles > 0 )
  402cce:	83 3d 7f 42 21 00 00 	cmpl   $0x0,0x21427f(%rip)        # 616f54 <numthrottles>
  402cd5:	7e 27                	jle    402cfe <main+0x3fe>
	{
	/* Set up the throttles timer. */
	if ( tmr_create( (struct timeval*) 0, update_throttles, JunkClientData, THROTTLE_TIME * 1000L, 1 ) == (Timer*) 0 )
  402cd7:	48 8b 15 0a 4b 21 00 	mov    0x214b0a(%rip),%rdx        # 6177e8 <JunkClientData>
  402cde:	31 ff                	xor    %edi,%edi
  402ce0:	41 b8 01 00 00 00    	mov    $0x1,%r8d
  402ce6:	b9 d0 07 00 00       	mov    $0x7d0,%ecx
  402ceb:	be 20 36 40 00       	mov    $0x403620,%esi
  402cf0:	e8 5b b0 00 00       	callq  40dd50 <tmr_create>
  402cf5:	48 85 c0             	test   %rax,%rax
  402cf8:	0f 84 9a 04 00 00    	je     403198 <main+0x898>
	    exit( 1 );
	    }
	}
#ifdef STATS_TIME
    /* Set up the stats timer. */
    if ( tmr_create( (struct timeval*) 0, show_stats, JunkClientData, STATS_TIME * 1000L, 1 ) == (Timer*) 0 )
  402cfe:	48 8b 15 e3 4a 21 00 	mov    0x214ae3(%rip),%rdx        # 6177e8 <JunkClientData>
  402d05:	31 ff                	xor    %edi,%edi
  402d07:	41 b8 01 00 00 00    	mov    $0x1,%r8d
  402d0d:	b9 80 ee 36 00       	mov    $0x36ee80,%ecx
  402d12:	be 80 39 40 00       	mov    $0x403980,%esi
  402d17:	e8 34 b0 00 00       	callq  40dd50 <tmr_create>
  402d1c:	48 85 c0             	test   %rax,%rax
  402d1f:	0f 84 16 06 00 00    	je     40333b <main+0xa3b>
	{
	syslog( LOG_CRIT, "tmr_create(show_stats) failed" );
	exit( 1 );
	}
#endif /* STATS_TIME */
    start_time = stats_time = time( (time_t*) 0 );
  402d25:	31 ff                	xor    %edi,%edi
  402d27:	e8 44 f8 ff ff       	callq  402570 <time@plt>
    stats_connections = 0;
  402d2c:	48 c7 05 a9 4a 21 00 	movq   $0x0,0x214aa9(%rip)        # 6177e0 <stats_connections>
  402d33:	00 00 00 00 
    start_time = stats_time = time( (time_t*) 0 );
  402d37:	48 89 05 9a 4a 21 00 	mov    %rax,0x214a9a(%rip)        # 6177d8 <stats_time>
  402d3e:	48 89 05 8b 4a 21 00 	mov    %rax,0x214a8b(%rip)        # 6177d0 <start_time>
    stats_bytes = 0;
  402d45:	48 c7 05 70 4a 21 00 	movq   $0x0,0x214a70(%rip)        # 6177c0 <stats_bytes>
  402d4c:	00 00 00 00 
    stats_simultaneous = 0;
  402d50:	c7 05 6e 4a 21 00 00 	movl   $0x0,0x214a6e(%rip)        # 6177c8 <stats_simultaneous>
  402d57:	00 00 00 

    /* If we're root, try to become someone else. */
    if ( getuid() == 0 )
  402d5a:	e8 31 f6 ff ff       	callq  402390 <getuid@plt>
  402d5f:	85 c0                	test   %eax,%eax
  402d61:	75 71                	jne    402dd4 <main+0x4d4>
	{
	/* Set aux groups to null. */
	if ( setgroups( 0, (const gid_t*) 0 ) < 0 )
  402d63:	31 f6                	xor    %esi,%esi
  402d65:	31 ff                	xor    %edi,%edi
  402d67:	e8 d4 f6 ff ff       	callq  402440 <setgroups@plt>
	    {
	    syslog( LOG_CRIT, "setgroups - %m" );
  402d6c:	be ed f1 40 00       	mov    $0x40f1ed,%esi
	if ( setgroups( 0, (const gid_t*) 0 ) < 0 )
  402d71:	85 c0                	test   %eax,%eax
  402d73:	0f 88 a6 01 00 00    	js     402f1f <main+0x61f>
	    exit( 1 );
	    }
	/* Set primary group. */
	if ( setgid( gid ) < 0 )
  402d79:	44 89 f7             	mov    %r14d,%edi
  402d7c:	e8 8f f9 ff ff       	callq  402710 <setgid@plt>
	    {
	    syslog( LOG_CRIT, "setgid - %m" );
  402d81:	be fc f1 40 00       	mov    $0x40f1fc,%esi
	if ( setgid( gid ) < 0 )
  402d86:	85 c0                	test   %eax,%eax
  402d88:	0f 88 91 01 00 00    	js     402f1f <main+0x61f>
	    exit( 1 );
	    }
	/* Try setting aux groups correctly - not critical if this fails. */
	if ( initgroups( user, gid ) < 0 )
  402d8e:	48 8b 3d e3 41 21 00 	mov    0x2141e3(%rip),%rdi        # 616f78 <user>
  402d95:	44 89 f6             	mov    %r14d,%esi
  402d98:	e8 c3 fa ff ff       	callq  402860 <initgroups@plt>
  402d9d:	85 c0                	test   %eax,%eax
  402d9f:	0f 88 e9 06 00 00    	js     40348e <main+0xb8e>
#ifdef HAVE_SETLOGIN
	/* Set login name. */
	(void) setlogin( user );
#endif /* HAVE_SETLOGIN */
	/* Set uid. */
	if ( setuid( uid ) < 0 )
  402da5:	44 89 ff             	mov    %r15d,%edi
  402da8:	e8 83 fa ff ff       	callq  402830 <setuid@plt>
	    {
	    syslog( LOG_CRIT, "setuid - %m" );
  402dad:	be 18 f2 40 00       	mov    $0x40f218,%esi
	if ( setuid( uid ) < 0 )
  402db2:	85 c0                	test   %eax,%eax
  402db4:	0f 88 65 01 00 00    	js     402f1f <main+0x61f>
	    exit( 1 );
	    }
	/* Check for unnecessary security exposure. */
	if ( ! do_chroot )
  402dba:	83 3d 17 42 21 00 00 	cmpl   $0x0,0x214217(%rip)        # 616fd8 <do_chroot>
  402dc1:	75 11                	jne    402dd4 <main+0x4d4>
	    syslog(
  402dc3:	be 50 ee 40 00       	mov    $0x40ee50,%esi
  402dc8:	bf 04 00 00 00       	mov    $0x4,%edi
  402dcd:	31 c0                	xor    %eax,%eax
  402dcf:	e8 4c f8 ff ff       	callq  402620 <syslog@plt>
		LOG_WARNING,
		"started as root without requesting chroot(), warning only" );
	}

    /* Initialize our connections table. */
    connects = NEW( connecttab, max_connects );
  402dd4:	48 63 2d 65 41 21 00 	movslq 0x214165(%rip),%rbp        # 616f40 <max_connects>
  402ddb:	48 89 eb             	mov    %rbp,%rbx
  402dde:	48 69 ed 90 00 00 00 	imul   $0x90,%rbp,%rbp
  402de5:	48 89 ef             	mov    %rbp,%rdi
  402de8:	e8 e3 f7 ff ff       	callq  4025d0 <malloc@plt>
  402ded:	48 89 05 54 41 21 00 	mov    %rax,0x214154(%rip)        # 616f48 <connects>
    if ( connects == (connecttab*) 0 )
  402df4:	48 85 c0             	test   %rax,%rax
  402df7:	0f 84 44 06 00 00    	je     403441 <main+0xb41>
  402dfd:	48 89 c2             	mov    %rax,%rdx
	{
	syslog( LOG_CRIT, "out of memory allocating a connecttab" );
	exit( 1 );
	}
    for ( cnum = 0; cnum < max_connects; ++cnum )
  402e00:	31 c9                	xor    %ecx,%ecx
  402e02:	eb 21                	jmp    402e25 <main+0x525>
	{
	connects[cnum].conn_state = CNST_FREE;
	connects[cnum].next_free_connect = cnum + 1;
  402e04:	83 c1 01             	add    $0x1,%ecx
	connects[cnum].conn_state = CNST_FREE;
  402e07:	c7 02 00 00 00 00    	movl   $0x0,(%rdx)
	connects[cnum].next_free_connect = cnum + 1;
  402e0d:	48 81 c2 90 00 00 00 	add    $0x90,%rdx
  402e14:	89 8a 74 ff ff ff    	mov    %ecx,-0x8c(%rdx)
	connects[cnum].hc = (httpd_conn*) 0;
  402e1a:	48 c7 82 78 ff ff ff 	movq   $0x0,-0x88(%rdx)
  402e21:	00 00 00 00 
    for ( cnum = 0; cnum < max_connects; ++cnum )
  402e25:	39 cb                	cmp    %ecx,%ebx
  402e27:	7f db                	jg     402e04 <main+0x504>
	}
    connects[max_connects - 1].next_free_connect = -1;	/* end of link list */
  402e29:	c7 84 28 74 ff ff ff 	movl   $0xffffffff,-0x8c(%rax,%rbp,1)
  402e30:	ff ff ff ff 
    first_free_connect = 0;
    num_connects = 0;
    httpd_conn_count = 0;

    if ( hs != (httpd_server*) 0 )
  402e34:	48 8b 05 f5 40 21 00 	mov    0x2140f5(%rip),%rax        # 616f30 <hs>
    first_free_connect = 0;
  402e3b:	c7 05 f7 40 21 00 00 	movl   $0x0,0x2140f7(%rip)        # 616f3c <first_free_connect>
  402e42:	00 00 00 
    num_connects = 0;
  402e45:	c7 05 f5 40 21 00 00 	movl   $0x0,0x2140f5(%rip)        # 616f44 <num_connects>
  402e4c:	00 00 00 
    httpd_conn_count = 0;
  402e4f:	c7 05 df 40 21 00 00 	movl   $0x0,0x2140df(%rip)        # 616f38 <httpd_conn_count>
  402e56:	00 00 00 
    if ( hs != (httpd_server*) 0 )
  402e59:	48 85 c0             	test   %rax,%rax
  402e5c:	74 29                	je     402e87 <main+0x587>
	{
	if ( hs->listen4_fd != -1 )
  402e5e:	8b 78 48             	mov    0x48(%rax),%edi
  402e61:	83 ff ff             	cmp    $0xffffffff,%edi
  402e64:	74 10                	je     402e76 <main+0x576>
	    fdwatch_add_fd( hs->listen4_fd, (void*) 0, FDW_READ );
  402e66:	31 d2                	xor    %edx,%edx
  402e68:	31 f6                	xor    %esi,%esi
  402e6a:	e8 31 31 00 00       	callq  405fa0 <fdwatch_add_fd>
  402e6f:	48 8b 05 ba 40 21 00 	mov    0x2140ba(%rip),%rax        # 616f30 <hs>
	if ( hs->listen6_fd != -1 )
  402e76:	8b 78 4c             	mov    0x4c(%rax),%edi
  402e79:	83 ff ff             	cmp    $0xffffffff,%edi
  402e7c:	74 09                	je     402e87 <main+0x587>
	    fdwatch_add_fd( hs->listen6_fd, (void*) 0, FDW_READ );
  402e7e:	31 d2                	xor    %edx,%edx
  402e80:	31 f6                	xor    %esi,%esi
  402e82:	e8 19 31 00 00       	callq  405fa0 <fdwatch_add_fd>
	}

    /* Main loop. */
    tmr_prepare_timeval( &tv );
  402e87:	48 8d 7c 24 20       	lea    0x20(%rsp),%rdi
  402e8c:	e8 1f ae 00 00       	callq  40dcb0 <tmr_prepare_timeval>
    while ( ( ! terminate ) || num_connects > 0 )
  402e91:	83 3d 88 40 21 00 00 	cmpl   $0x0,0x214088(%rip)        # 616f20 <terminate>
  402e98:	74 0d                	je     402ea7 <main+0x5a7>
  402e9a:	83 3d a3 40 21 00 00 	cmpl   $0x0,0x2140a3(%rip)        # 616f44 <num_connects>
  402ea1:	0f 8e c5 05 00 00    	jle    40346c <main+0xb6c>
	{
	/* Do we need to re-open the log file? */
	if ( got_hup )
  402ea7:	8b 05 7f 40 21 00    	mov    0x21407f(%rip),%eax        # 616f2c <got_hup>
  402ead:	85 c0                	test   %eax,%eax
  402eaf:	0f 85 23 04 00 00    	jne    4032d8 <main+0x9d8>
	    re_open_logfile();
	    got_hup = 0;
	    }

	/* Do the fd watch. */
	num_ready = fdwatch( tmr_mstimeout( &tv ) );
  402eb5:	48 8d 7c 24 20       	lea    0x20(%rsp),%rdi
  402eba:	e8 b1 a9 00 00       	callq  40d870 <tmr_mstimeout>
  402ebf:	48 89 c7             	mov    %rax,%rdi
  402ec2:	e8 a9 31 00 00       	callq  406070 <fdwatch>
  402ec7:	89 c3                	mov    %eax,%ebx
	if ( num_ready < 0 )
  402ec9:	85 c0                	test   %eax,%eax
  402ecb:	0f 89 3a 03 00 00    	jns    40320b <main+0x90b>
	    {
	    if ( errno == EINTR || errno == EAGAIN )
  402ed1:	e8 5a f3 ff ff       	callq  402230 <__errno_location@plt>
  402ed6:	8b 00                	mov    (%rax),%eax
  402ed8:	83 f8 04             	cmp    $0x4,%eax
  402edb:	74 b4                	je     402e91 <main+0x591>
  402edd:	83 f8 0b             	cmp    $0xb,%eax
  402ee0:	74 af                	je     402e91 <main+0x591>
		continue;       /* try again */
	    syslog( LOG_ERR, "fdwatch - %m" );
  402ee2:	bf 03 00 00 00       	mov    $0x3,%edi
  402ee7:	be 24 f2 40 00       	mov    $0x40f224,%esi
  402eec:	31 c0                	xor    %eax,%eax
  402eee:	e8 2d f7 ff ff       	callq  402620 <syslog@plt>
	    exit( 1 );
  402ef3:	bf 01 00 00 00       	mov    $0x1,%edi
  402ef8:	e8 03 f9 ff ff       	callq  402800 <exit@plt>
	else if ( strcmp( logfile, "-" ) == 0 )
  402efd:	be 99 f9 40 00       	mov    $0x40f999,%esi
  402f02:	48 89 ef             	mov    %rbp,%rdi
  402f05:	e8 06 f6 ff ff       	callq  402510 <strcmp@plt>
  402f0a:	85 c0                	test   %eax,%eax
  402f0c:	75 5b                	jne    402f69 <main+0x669>
	    logfp = stdout;
  402f0e:	4c 8b 2d eb 3f 21 00 	mov    0x213feb(%rip),%r13        # 616f00 <stdout@@GLIBC_2.2.5>
  402f15:	e9 ec fa ff ff       	jmpq   402a06 <main+0x106>
	syslog( LOG_CRIT, "fdwatch initialization failure" );
  402f1a:	be 68 ed 40 00       	mov    $0x40ed68,%esi
  402f1f:	bf 02 00 00 00       	mov    $0x2,%edi
  402f24:	31 c0                	xor    %eax,%eax
  402f26:	e8 f5 f6 ff ff       	callq  402620 <syslog@plt>
	exit( 1 );
  402f2b:	bf 01 00 00 00       	mov    $0x1,%edi
  402f30:	e8 cb f8 ff ff       	callq  402800 <exit@plt>
	(void) setsid();
  402f35:	e8 46 f5 ff ff       	callq  402480 <setsid@plt>
  402f3a:	e9 70 fb ff ff       	jmpq   402aaf <main+0x1af>
	pwd = getpwnam( user );
  402f3f:	48 8b 3d 32 40 21 00 	mov    0x214032(%rip),%rdi        # 616f78 <user>
  402f46:	e8 d5 f5 ff ff       	callq  402520 <getpwnam@plt>
	if ( pwd == (struct passwd*) 0 )
  402f4b:	48 85 c0             	test   %rax,%rax
  402f4e:	0f 84 5d 02 00 00    	je     4031b1 <main+0x8b1>
	uid = pwd->pw_uid;
  402f54:	44 8b 78 10          	mov    0x10(%rax),%r15d
	gid = pwd->pw_gid;
  402f58:	44 8b 70 14          	mov    0x14(%rax),%r14d
  402f5c:	e9 73 fa ff ff       	jmpq   4029d4 <main+0xd4>
	logfp = (FILE*) 0;
  402f61:	45 31 ed             	xor    %r13d,%r13d
  402f64:	e9 9d fa ff ff       	jmpq   402a06 <main+0x106>
	    logfp = fopen( logfile, "a" );
  402f69:	48 89 ef             	mov    %rbp,%rdi
  402f6c:	be c7 fe 40 00       	mov    $0x40fec7,%esi
  402f71:	e8 ea f7 ff ff       	callq  402760 <fopen@plt>
	    retchmod = chmod( logfile, S_IRUSR|S_IWUSR );
  402f76:	48 8b 2d 1b 40 21 00 	mov    0x21401b(%rip),%rbp        # 616f98 <logfile>
  402f7d:	be 80 01 00 00       	mov    $0x180,%esi
	    logfp = fopen( logfile, "a" );
  402f82:	49 89 c5             	mov    %rax,%r13
	    retchmod = chmod( logfile, S_IRUSR|S_IWUSR );
  402f85:	48 89 ef             	mov    %rbp,%rdi
  402f88:	e8 33 f7 ff ff       	callq  4026c0 <chmod@plt>
	    if ( logfp == (FILE*) 0 || retchmod != 0 )
  402f8d:	4d 85 ed             	test   %r13,%r13
  402f90:	0f 84 56 03 00 00    	je     4032ec <main+0x9ec>
  402f96:	85 c0                	test   %eax,%eax
  402f98:	0f 85 4e 03 00 00    	jne    4032ec <main+0x9ec>
	    if ( logfile[0] != '/' )
  402f9e:	80 7d 00 2f          	cmpb   $0x2f,0x0(%rbp)
  402fa2:	0f 85 c0 01 00 00    	jne    403168 <main+0x868>
	    (void) fcntl( fileno( logfp ), F_SETFD, 1 );
  402fa8:	4c 89 ef             	mov    %r13,%rdi
  402fab:	e8 d0 f5 ff ff       	callq  402580 <fileno@plt>
  402fb0:	ba 01 00 00 00       	mov    $0x1,%edx
  402fb5:	be 02 00 00 00       	mov    $0x2,%esi
  402fba:	89 c7                	mov    %eax,%edi
  402fbc:	31 c0                	xor    %eax,%eax
  402fbe:	e8 2d f3 ff ff       	callq  4022f0 <fcntl@plt>
	    if ( getuid() == 0 )
  402fc3:	e8 c8 f3 ff ff       	callq  402390 <getuid@plt>
  402fc8:	85 c0                	test   %eax,%eax
  402fca:	0f 85 36 fa ff ff    	jne    402a06 <main+0x106>
		if ( fchown( fileno( logfp ), uid, gid ) < 0 )
  402fd0:	4c 89 ef             	mov    %r13,%rdi
  402fd3:	e8 a8 f5 ff ff       	callq  402580 <fileno@plt>
  402fd8:	44 89 f2             	mov    %r14d,%edx
  402fdb:	44 89 fe             	mov    %r15d,%esi
  402fde:	89 c7                	mov    %eax,%edi
  402fe0:	e8 6b f7 ff ff       	callq  402750 <fchown@plt>
  402fe5:	85 c0                	test   %eax,%eax
  402fe7:	0f 89 19 fa ff ff    	jns    402a06 <main+0x106>
		    syslog( LOG_WARNING, "fchown logfile - %m" );
  402fed:	be 18 f1 40 00       	mov    $0x40f118,%esi
  402ff2:	bf 04 00 00 00       	mov    $0x4,%edi
  402ff7:	31 c0                	xor    %eax,%eax
  402ff9:	e8 22 f6 ff ff       	callq  402620 <syslog@plt>
		    perror( "fchown logfile" );
  402ffe:	bf 2c f1 40 00       	mov    $0x40f12c,%edi
  403003:	e8 68 f7 ff ff       	callq  402770 <perror@plt>
  403008:	e9 f9 f9 ff ff       	jmpq   402a06 <main+0x106>
	syslog( LOG_ERR, "can't find any valid address" );
  40300d:	be c1 f0 40 00       	mov    $0x40f0c1,%esi
  403012:	bf 03 00 00 00       	mov    $0x3,%edi
  403017:	31 c0                	xor    %eax,%eax
  403019:	e8 02 f6 ff ff       	callq  402620 <syslog@plt>
	(void) fprintf( stderr, "%s: can't find any valid address\n", argv0 );
  40301e:	48 8b 3d eb 3e 21 00 	mov    0x213eeb(%rip),%rdi        # 616f10 <stderr@@GLIBC_2.2.5>
  403025:	48 8b 15 cc 3f 21 00 	mov    0x213fcc(%rip),%rdx        # 616ff8 <argv0>
  40302c:	31 c0                	xor    %eax,%eax
  40302e:	be b0 ec 40 00       	mov    $0x40ecb0,%esi
  403033:	e8 f8 f4 ff ff       	callq  402530 <fprintf@plt>
	exit( 1 );
  403038:	bf 01 00 00 00       	mov    $0x1,%edi
  40303d:	e8 be f7 ff ff       	callq  402800 <exit@plt>
	    syslog( LOG_CRIT, "chdir - %m" );
  403042:	be 7f f1 40 00       	mov    $0x40f17f,%esi
  403047:	bf 02 00 00 00       	mov    $0x2,%edi
  40304c:	31 c0                	xor    %eax,%eax
  40304e:	e8 cd f5 ff ff       	callq  402620 <syslog@plt>
	    perror( "chdir" );
  403053:	bf 93 f1 40 00       	mov    $0x40f193,%edi
  403058:	e8 13 f7 ff ff       	callq  402770 <perror@plt>
	    exit( 1 );
  40305d:	bf 01 00 00 00       	mov    $0x1,%edi
  403062:	e8 99 f7 ff ff       	callq  402800 <exit@plt>
	    syslog( LOG_CRIT, "%.80s - %m", pidfile );
  403067:	48 8b 15 12 3f 21 00 	mov    0x213f12(%rip),%rdx        # 616f80 <pidfile>
  40306e:	bf 02 00 00 00       	mov    $0x2,%edi
  403073:	be 51 f5 40 00       	mov    $0x40f551,%esi
  403078:	31 c0                	xor    %eax,%eax
  40307a:	e8 a1 f5 ff ff       	callq  402620 <syslog@plt>
	    exit( 1 );
  40307f:	bf 01 00 00 00       	mov    $0x1,%edi
  403084:	e8 77 f7 ff ff       	callq  402800 <exit@plt>
	if ( chroot( cwd ) < 0 )
  403089:	48 89 ef             	mov    %rbp,%rdi
  40308c:	e8 df f1 ff ff       	callq  402270 <chroot@plt>
  403091:	85 c0                	test   %eax,%eax
  403093:	0f 88 7d 02 00 00    	js     403316 <main+0xa16>
	if ( logfile != (char*) 0 && strcmp( logfile, "-" ) != 0 )
  403099:	4c 8b 05 f8 3e 21 00 	mov    0x213ef8(%rip),%r8        # 616f98 <logfile>
  4030a0:	4d 85 c0             	test   %r8,%r8
  4030a3:	74 5f                	je     403104 <main+0x804>
  4030a5:	be 99 f9 40 00       	mov    $0x40f999,%esi
  4030aa:	4c 89 c7             	mov    %r8,%rdi
  4030ad:	4c 89 04 24          	mov    %r8,(%rsp)
  4030b1:	e8 5a f4 ff ff       	callq  402510 <strcmp@plt>
  4030b6:	85 c0                	test   %eax,%eax
  4030b8:	74 4a                	je     403104 <main+0x804>
	    if ( strncmp( logfile, cwd, strlen( cwd ) ) == 0 )
  4030ba:	48 83 c9 ff          	or     $0xffffffffffffffff,%rcx
  4030be:	31 c0                	xor    %eax,%eax
  4030c0:	48 89 ef             	mov    %rbp,%rdi
  4030c3:	4c 8b 04 24          	mov    (%rsp),%r8
  4030c7:	f2 ae                	repnz scas %es:(%rdi),%al
  4030c9:	48 89 ee             	mov    %rbp,%rsi
  4030cc:	4c 89 c7             	mov    %r8,%rdi
  4030cf:	48 89 ca             	mov    %rcx,%rdx
  4030d2:	48 f7 d2             	not    %rdx
  4030d5:	48 89 d1             	mov    %rdx,%rcx
  4030d8:	48 8d 52 ff          	lea    -0x1(%rdx),%rdx
  4030dc:	48 89 4c 24 08       	mov    %rcx,0x8(%rsp)
  4030e1:	e8 6a f1 ff ff       	callq  402250 <strncmp@plt>
  4030e6:	85 c0                	test   %eax,%eax
  4030e8:	0f 85 14 03 00 00    	jne    403402 <main+0xb02>
		(void) strcpy( logfile, &logfile[strlen( cwd ) - 1] );
  4030ee:	4c 8b 04 24          	mov    (%rsp),%r8
  4030f2:	48 8b 4c 24 08       	mov    0x8(%rsp),%rcx
  4030f7:	4c 89 c7             	mov    %r8,%rdi
  4030fa:	49 8d 74 08 fe       	lea    -0x2(%r8,%rcx,1),%rsi
  4030ff:	e8 5c f1 ff ff       	callq  402260 <strcpy@plt>
	(void) strcpy( cwd, "/" );
  403104:	66 c7 84 24 30 01 00 	movw   $0x2f,0x130(%rsp)
  40310b:	00 2f 00 
	if ( chdir( cwd ) < 0 )
  40310e:	48 89 ef             	mov    %rbp,%rdi
  403111:	e8 6a f2 ff ff       	callq  402380 <chdir@plt>
  403116:	85 c0                	test   %eax,%eax
  403118:	0f 89 03 fa ff ff    	jns    402b21 <main+0x221>
	    syslog( LOG_CRIT, "chroot chdir - %m" );
  40311e:	be 57 f1 40 00       	mov    $0x40f157,%esi
  403123:	bf 02 00 00 00       	mov    $0x2,%edi
  403128:	31 c0                	xor    %eax,%eax
  40312a:	e8 f1 f4 ff ff       	callq  402620 <syslog@plt>
	    perror( "chroot chdir" );
  40312f:	bf 69 f1 40 00       	mov    $0x40f169,%edi
  403134:	e8 37 f6 ff ff       	callq  402770 <perror@plt>
	    exit( 1 );
  403139:	bf 01 00 00 00       	mov    $0x1,%edi
  40313e:	e8 bd f6 ff ff       	callq  402800 <exit@plt>
	    syslog( LOG_CRIT, "data_dir chdir - %m" );
  403143:	be 76 f1 40 00       	mov    $0x40f176,%esi
  403148:	bf 02 00 00 00       	mov    $0x2,%edi
  40314d:	31 c0                	xor    %eax,%eax
  40314f:	e8 cc f4 ff ff       	callq  402620 <syslog@plt>
	    perror( "data_dir chdir" );
  403154:	bf 8a f1 40 00       	mov    $0x40f18a,%edi
  403159:	e8 12 f6 ff ff       	callq  402770 <perror@plt>
	    exit( 1 );
  40315e:	bf 01 00 00 00       	mov    $0x1,%edi
  403163:	e8 98 f6 ff ff       	callq  402800 <exit@plt>
		syslog( LOG_WARNING, "logfile is not an absolute path, you may not be able to re-open it" );
  403168:	31 c0                	xor    %eax,%eax
  40316a:	be d8 ec 40 00       	mov    $0x40ecd8,%esi
  40316f:	bf 04 00 00 00       	mov    $0x4,%edi
  403174:	e8 a7 f4 ff ff       	callq  402620 <syslog@plt>
		(void) fprintf( stderr, "%s: logfile is not an absolute path, you may not be able to re-open it\n", argv0 );
  403179:	48 8b 15 78 3e 21 00 	mov    0x213e78(%rip),%rdx        # 616ff8 <argv0>
  403180:	48 8b 3d 89 3d 21 00 	mov    0x213d89(%rip),%rdi        # 616f10 <stderr@@GLIBC_2.2.5>
  403187:	31 c0                	xor    %eax,%eax
  403189:	be 20 ed 40 00       	mov    $0x40ed20,%esi
  40318e:	e8 9d f3 ff ff       	callq  402530 <fprintf@plt>
  403193:	e9 10 fe ff ff       	jmpq   402fa8 <main+0x6a8>
	    syslog( LOG_CRIT, "tmr_create(update_throttles) failed" );
  403198:	bf 02 00 00 00       	mov    $0x2,%edi
  40319d:	be 28 ee 40 00       	mov    $0x40ee28,%esi
  4031a2:	e8 79 f4 ff ff       	callq  402620 <syslog@plt>
	    exit( 1 );
  4031a7:	bf 01 00 00 00       	mov    $0x1,%edi
  4031ac:	e8 4f f6 ff ff       	callq  402800 <exit@plt>
	    syslog( LOG_CRIT, "unknown user - '%.80s'", user );
  4031b1:	48 8b 15 c0 3d 21 00 	mov    0x213dc0(%rip),%rdx        # 616f78 <user>
  4031b8:	be de f0 40 00       	mov    $0x40f0de,%esi
  4031bd:	bf 02 00 00 00       	mov    $0x2,%edi
  4031c2:	e8 59 f4 ff ff       	callq  402620 <syslog@plt>
	    (void) fprintf( stderr, "%s: unknown user - '%s'\n", argv0, user );
  4031c7:	48 8b 3d 42 3d 21 00 	mov    0x213d42(%rip),%rdi        # 616f10 <stderr@@GLIBC_2.2.5>
  4031ce:	be f5 f0 40 00       	mov    $0x40f0f5,%esi
  4031d3:	31 c0                	xor    %eax,%eax
  4031d5:	48 8b 0d 9c 3d 21 00 	mov    0x213d9c(%rip),%rcx        # 616f78 <user>
  4031dc:	48 8b 15 15 3e 21 00 	mov    0x213e15(%rip),%rdx        # 616ff8 <argv0>
  4031e3:	e8 48 f3 ff ff       	callq  402530 <fprintf@plt>
	    exit( 1 );
  4031e8:	bf 01 00 00 00       	mov    $0x1,%edi
  4031ed:	e8 0e f6 ff ff       	callq  402800 <exit@plt>
	syslog( LOG_CRIT, "tmr_create(occasional) failed" );
  4031f2:	bf 02 00 00 00       	mov    $0x2,%edi
  4031f7:	be 99 f1 40 00       	mov    $0x40f199,%esi
  4031fc:	e8 1f f4 ff ff       	callq  402620 <syslog@plt>
	exit( 1 );
  403201:	bf 01 00 00 00       	mov    $0x1,%edi
  403206:	e8 f5 f5 ff ff       	callq  402800 <exit@plt>
	    }
	tmr_prepare_timeval( &tv );
  40320b:	48 8d 7c 24 20       	lea    0x20(%rsp),%rdi
  403210:	e8 9b aa 00 00       	callq  40dcb0 <tmr_prepare_timeval>

	if ( num_ready == 0 )
  403215:	85 db                	test   %ebx,%ebx
  403217:	0f 84 15 02 00 00    	je     403432 <main+0xb32>
	    tmr_run( &tv );
	    continue;
	    }

	/* Is it a new connection? */
	if ( hs != (httpd_server*) 0 && hs->listen6_fd != -1 &&
  40321d:	48 8b 05 0c 3d 21 00 	mov    0x213d0c(%rip),%rax        # 616f30 <hs>
  403224:	48 85 c0             	test   %rax,%rax
  403227:	74 4e                	je     403277 <main+0x977>
  403229:	8b 78 4c             	mov    0x4c(%rax),%edi
  40322c:	83 ff ff             	cmp    $0xffffffff,%edi
  40322f:	74 19                	je     40324a <main+0x94a>
	     fdwatch_check_fd( hs->listen6_fd ) )
  403231:	e8 6a 2e 00 00       	callq  4060a0 <fdwatch_check_fd>
	if ( hs != (httpd_server*) 0 && hs->listen6_fd != -1 &&
  403236:	85 c0                	test   %eax,%eax
  403238:	0f 85 0d 02 00 00    	jne    40344b <main+0xb4b>
		** dropping through and processing existing connections.
		** New connections always get priority.
		*/
		continue;
	    }
	if ( hs != (httpd_server*) 0 && hs->listen4_fd != -1 &&
  40323e:	48 8b 05 eb 3c 21 00 	mov    0x213ceb(%rip),%rax        # 616f30 <hs>
  403245:	48 85 c0             	test   %rax,%rax
  403248:	74 2d                	je     403277 <main+0x977>
  40324a:	8b 78 48             	mov    0x48(%rax),%edi
  40324d:	83 ff ff             	cmp    $0xffffffff,%edi
  403250:	74 25                	je     403277 <main+0x977>
	     fdwatch_check_fd( hs->listen4_fd ) )
  403252:	e8 49 2e 00 00       	callq  4060a0 <fdwatch_check_fd>
	if ( hs != (httpd_server*) 0 && hs->listen4_fd != -1 &&
  403257:	85 c0                	test   %eax,%eax
  403259:	74 1c                	je     403277 <main+0x977>
	    {
	    if ( handle_newconnect( &tv, hs->listen4_fd ) )
  40325b:	48 8b 05 ce 3c 21 00 	mov    0x213cce(%rip),%rax        # 616f30 <hs>
  403262:	48 8d 7c 24 20       	lea    0x20(%rsp),%rdi
  403267:	8b 70 48             	mov    0x48(%rax),%esi
  40326a:	e8 31 19 00 00       	callq  404ba0 <handle_newconnect>
  40326f:	85 c0                	test   %eax,%eax
  403271:	0f 85 1a fc ff ff    	jne    402e91 <main+0x591>
		*/
		continue;
	    }

	/* Find the connections that need servicing. */
	while ( ( c = (connecttab*) fdwatch_get_next_client_data() ) != (connecttab*) -1 )
  403277:	e8 74 2e 00 00       	callq  4060f0 <fdwatch_get_next_client_data>
  40327c:	48 89 c3             	mov    %rax,%rbx
  40327f:	48 83 f8 ff          	cmp    $0xffffffffffffffff,%rax
  403283:	0f 84 cb 00 00 00    	je     403354 <main+0xa54>
	    {
	    if ( c == (connecttab*) 0 )
  403289:	48 85 db             	test   %rbx,%rbx
  40328c:	74 e9                	je     403277 <main+0x977>
		continue;
	    hc = c->hc;
	    if ( ! fdwatch_check_fd( hc->conn_fd ) )
  40328e:	48 8b 43 08          	mov    0x8(%rbx),%rax
  403292:	8b b8 c0 02 00 00    	mov    0x2c0(%rax),%edi
  403298:	e8 03 2e 00 00       	callq  4060a0 <fdwatch_check_fd>
  40329d:	85 c0                	test   %eax,%eax
  40329f:	74 28                	je     4032c9 <main+0x9c9>
		/* Something went wrong. */
		clear_connection( c, &tv );
	    else
		switch ( c->conn_state )
  4032a1:	8b 03                	mov    (%rbx),%eax
  4032a3:	83 f8 02             	cmp    $0x2,%eax
  4032a6:	0f 84 2b 01 00 00    	je     4033d7 <main+0xad7>
  4032ac:	83 f8 04             	cmp    $0x4,%eax
  4032af:	0f 84 10 01 00 00    	je     4033c5 <main+0xac5>
  4032b5:	83 e8 01             	sub    $0x1,%eax
  4032b8:	75 bd                	jne    403277 <main+0x977>
		    {
		    case CNST_READING: handle_read( c, &tv ); break;
  4032ba:	48 8d 74 24 20       	lea    0x20(%rsp),%rsi
  4032bf:	48 89 df             	mov    %rbx,%rdi
  4032c2:	e8 c9 1f 00 00       	callq  405290 <handle_read>
  4032c7:	eb ae                	jmp    403277 <main+0x977>
		clear_connection( c, &tv );
  4032c9:	48 8d 74 24 20       	lea    0x20(%rsp),%rsi
  4032ce:	48 89 df             	mov    %rbx,%rdi
  4032d1:	e8 6a 1e 00 00       	callq  405140 <clear_connection>
  4032d6:	eb 9f                	jmp    403277 <main+0x977>
	    re_open_logfile();
  4032d8:	e8 e3 17 00 00       	callq  404ac0 <re_open_logfile>
	    got_hup = 0;
  4032dd:	c7 05 45 3c 21 00 00 	movl   $0x0,0x213c45(%rip)        # 616f2c <got_hup>
  4032e4:	00 00 00 
  4032e7:	e9 c9 fb ff ff       	jmpq   402eb5 <main+0x5b5>
		syslog( LOG_CRIT, "%.80s - %m", logfile );
  4032ec:	48 89 ea             	mov    %rbp,%rdx
  4032ef:	be 51 f5 40 00       	mov    $0x40f551,%esi
  4032f4:	bf 02 00 00 00       	mov    $0x2,%edi
  4032f9:	31 c0                	xor    %eax,%eax
  4032fb:	e8 20 f3 ff ff       	callq  402620 <syslog@plt>
		perror( logfile );
  403300:	48 8b 3d 91 3c 21 00 	mov    0x213c91(%rip),%rdi        # 616f98 <logfile>
  403307:	e8 64 f4 ff ff       	callq  402770 <perror@plt>
		exit( 1 );
  40330c:	bf 01 00 00 00       	mov    $0x1,%edi
  403311:	e8 ea f4 ff ff       	callq  402800 <exit@plt>
	    syslog( LOG_CRIT, "chroot - %m" );
  403316:	be 4b f1 40 00       	mov    $0x40f14b,%esi
  40331b:	bf 02 00 00 00       	mov    $0x2,%edi
  403320:	31 c0                	xor    %eax,%eax
  403322:	e8 f9 f2 ff ff       	callq  402620 <syslog@plt>
	    perror( "chroot" );
  403327:	bf dd ee 40 00       	mov    $0x40eedd,%edi
  40332c:	e8 3f f4 ff ff       	callq  402770 <perror@plt>
	    exit( 1 );
  403331:	bf 01 00 00 00       	mov    $0x1,%edi
  403336:	e8 c5 f4 ff ff       	callq  402800 <exit@plt>
	syslog( LOG_CRIT, "tmr_create(show_stats) failed" );
  40333b:	bf 02 00 00 00       	mov    $0x2,%edi
  403340:	be cf f1 40 00       	mov    $0x40f1cf,%esi
  403345:	e8 d6 f2 ff ff       	callq  402620 <syslog@plt>
	exit( 1 );
  40334a:	bf 01 00 00 00       	mov    $0x1,%edi
  40334f:	e8 ac f4 ff ff       	callq  402800 <exit@plt>
		    case CNST_SENDING: handle_send( c, &tv ); break;
		    case CNST_LINGERING: handle_linger( c, &tv ); break;
		    }
	    }
	tmr_run( &tv );
  403354:	48 8d 7c 24 20       	lea    0x20(%rsp),%rdi
  403359:	e8 e2 a6 00 00       	callq  40da40 <tmr_run>

	if ( got_usr1 && ! terminate )
  40335e:	8b 05 c4 3b 21 00    	mov    0x213bc4(%rip),%eax        # 616f28 <got_usr1>
  403364:	85 c0                	test   %eax,%eax
  403366:	0f 84 25 fb ff ff    	je     402e91 <main+0x591>
  40336c:	83 3d ad 3b 21 00 00 	cmpl   $0x0,0x213bad(%rip)        # 616f20 <terminate>
  403373:	0f 85 18 fb ff ff    	jne    402e91 <main+0x591>
	    {
	    terminate = 1;
	    if ( hs != (httpd_server*) 0 )
  403379:	48 8b 05 b0 3b 21 00 	mov    0x213bb0(%rip),%rax        # 616f30 <hs>
	    terminate = 1;
  403380:	c7 05 96 3b 21 00 01 	movl   $0x1,0x213b96(%rip)        # 616f20 <terminate>
  403387:	00 00 00 
	    if ( hs != (httpd_server*) 0 )
  40338a:	48 85 c0             	test   %rax,%rax
  40338d:	0f 84 fe fa ff ff    	je     402e91 <main+0x591>
		{
		if ( hs->listen4_fd != -1 )
  403393:	8b 78 48             	mov    0x48(%rax),%edi
  403396:	83 ff ff             	cmp    $0xffffffff,%edi
  403399:	74 0c                	je     4033a7 <main+0xaa7>
		    fdwatch_del_fd( hs->listen4_fd );
  40339b:	e8 70 2c 00 00       	callq  406010 <fdwatch_del_fd>
  4033a0:	48 8b 05 89 3b 21 00 	mov    0x213b89(%rip),%rax        # 616f30 <hs>
		if ( hs->listen6_fd != -1 )
  4033a7:	8b 78 4c             	mov    0x4c(%rax),%edi
  4033aa:	83 ff ff             	cmp    $0xffffffff,%edi
  4033ad:	74 05                	je     4033b4 <main+0xab4>
		    fdwatch_del_fd( hs->listen6_fd );
  4033af:	e8 5c 2c 00 00       	callq  406010 <fdwatch_del_fd>
		httpd_unlisten( hs );
  4033b4:	48 8b 3d 75 3b 21 00 	mov    0x213b75(%rip),%rdi        # 616f30 <hs>
  4033bb:	e8 90 3b 00 00       	callq  406f50 <httpd_unlisten>
  4033c0:	e9 cc fa ff ff       	jmpq   402e91 <main+0x591>
		    case CNST_LINGERING: handle_linger( c, &tv ); break;
  4033c5:	48 8d 74 24 20       	lea    0x20(%rsp),%rsi
  4033ca:	48 89 df             	mov    %rbx,%rdi
  4033cd:	e8 6e 25 00 00       	callq  405940 <handle_linger>
  4033d2:	e9 a0 fe ff ff       	jmpq   403277 <main+0x977>
		    case CNST_SENDING: handle_send( c, &tv ); break;
  4033d7:	48 8d 74 24 20       	lea    0x20(%rsp),%rsi
  4033dc:	48 89 df             	mov    %rbx,%rdi
  4033df:	e8 0c 22 00 00       	callq  4055f0 <handle_send>
  4033e4:	e9 8e fe ff ff       	jmpq   403277 <main+0x977>
	syslog( LOG_CRIT, "tmr_create(idle) failed" );
  4033e9:	bf 02 00 00 00       	mov    $0x2,%edi
  4033ee:	be b7 f1 40 00       	mov    $0x40f1b7,%esi
  4033f3:	e8 28 f2 ff ff       	callq  402620 <syslog@plt>
	exit( 1 );
  4033f8:	bf 01 00 00 00       	mov    $0x1,%edi
  4033fd:	e8 fe f3 ff ff       	callq  402800 <exit@plt>
		syslog( LOG_WARNING, "logfile is not within the chroot tree, you will not be able to re-open it" );
  403402:	31 c0                	xor    %eax,%eax
  403404:	be 88 ed 40 00       	mov    $0x40ed88,%esi
  403409:	bf 04 00 00 00       	mov    $0x4,%edi
  40340e:	e8 0d f2 ff ff       	callq  402620 <syslog@plt>
		(void) fprintf( stderr, "%s: logfile is not within the chroot tree, you will not be able to re-open it\n", argv0 );
  403413:	48 8b 15 de 3b 21 00 	mov    0x213bde(%rip),%rdx        # 616ff8 <argv0>
  40341a:	48 8b 3d ef 3a 21 00 	mov    0x213aef(%rip),%rdi        # 616f10 <stderr@@GLIBC_2.2.5>
  403421:	31 c0                	xor    %eax,%eax
  403423:	be d8 ed 40 00       	mov    $0x40edd8,%esi
  403428:	e8 03 f1 ff ff       	callq  402530 <fprintf@plt>
  40342d:	e9 d2 fc ff ff       	jmpq   403104 <main+0x804>
	    tmr_run( &tv );
  403432:	48 8d 7c 24 20       	lea    0x20(%rsp),%rdi
  403437:	e8 04 a6 00 00       	callq  40da40 <tmr_run>
	    continue;
  40343c:	e9 50 fa ff ff       	jmpq   402e91 <main+0x591>
	syslog( LOG_CRIT, "out of memory allocating a connecttab" );
  403441:	be 90 ee 40 00       	mov    $0x40ee90,%esi
  403446:	e9 d4 fa ff ff       	jmpq   402f1f <main+0x61f>
	    if ( handle_newconnect( &tv, hs->listen6_fd ) )
  40344b:	48 8b 05 de 3a 21 00 	mov    0x213ade(%rip),%rax        # 616f30 <hs>
  403452:	48 8d 7c 24 20       	lea    0x20(%rsp),%rdi
  403457:	8b 70 4c             	mov    0x4c(%rax),%esi
  40345a:	e8 41 17 00 00       	callq  404ba0 <handle_newconnect>
  40345f:	85 c0                	test   %eax,%eax
  403461:	0f 84 d7 fd ff ff    	je     40323e <main+0x93e>
  403467:	e9 25 fa ff ff       	jmpq   402e91 <main+0x591>
		}
	    }
	}

    /* The main loop terminated. */
    shut_down();
  40346c:	e8 5f 1a 00 00       	callq  404ed0 <shut_down>
    syslog( LOG_NOTICE, "exiting" );
  403471:	bf 05 00 00 00       	mov    $0x5,%edi
  403476:	be 54 f0 40 00       	mov    $0x40f054,%esi
  40347b:	31 c0                	xor    %eax,%eax
  40347d:	e8 9e f1 ff ff       	callq  402620 <syslog@plt>
    closelog();
  403482:	e8 79 ed ff ff       	callq  402200 <closelog@plt>
    exit( 0 );
  403487:	31 ff                	xor    %edi,%edi
  403489:	e8 72 f3 ff ff       	callq  402800 <exit@plt>
	    syslog( LOG_WARNING, "initgroups - %m" );
  40348e:	be 08 f2 40 00       	mov    $0x40f208,%esi
  403493:	bf 04 00 00 00       	mov    $0x4,%edi
  403498:	31 c0                	xor    %eax,%eax
  40349a:	e8 81 f1 ff ff       	callq  402620 <syslog@plt>
  40349f:	e9 01 f9 ff ff       	jmpq   402da5 <main+0x4a5>

00000000004034a4 <_start>:
  4034a4:	31 ed                	xor    %ebp,%ebp
  4034a6:	49 89 d1             	mov    %rdx,%r9
  4034a9:	5e                   	pop    %rsi
  4034aa:	48 89 e2             	mov    %rsp,%rdx
  4034ad:	48 83 e4 f0          	and    $0xfffffffffffffff0,%rsp
  4034b1:	50                   	push   %rax
  4034b2:	54                   	push   %rsp
  4034b3:	49 c7 c0 10 e7 40 00 	mov    $0x40e710,%r8
  4034ba:	48 c7 c1 a0 e6 40 00 	mov    $0x40e6a0,%rcx
  4034c1:	48 c7 c7 00 29 40 00 	mov    $0x402900,%rdi
  4034c8:	e8 03 f0 ff ff       	callq  4024d0 <__libc_start_main@plt>
  4034cd:	f4                   	hlt    
  4034ce:	66 90                	xchg   %ax,%ax

00000000004034d0 <deregister_tm_clones>:
  4034d0:	b8 00 6f 61 00       	mov    $0x616f00,%eax
  4034d5:	48 3d 00 6f 61 00    	cmp    $0x616f00,%rax
  4034db:	74 13                	je     4034f0 <deregister_tm_clones+0x20>
  4034dd:	b8 00 00 00 00       	mov    $0x0,%eax
  4034e2:	48 85 c0             	test   %rax,%rax
  4034e5:	74 09                	je     4034f0 <deregister_tm_clones+0x20>
  4034e7:	bf 00 6f 61 00       	mov    $0x616f00,%edi
  4034ec:	ff e0                	jmpq   *%rax
  4034ee:	66 90                	xchg   %ax,%ax
  4034f0:	c3                   	retq   
  4034f1:	0f 1f 44 00 00       	nopl   0x0(%rax,%rax,1)
  4034f6:	66 2e 0f 1f 84 00 00 	nopw   %cs:0x0(%rax,%rax,1)
  4034fd:	00 00 00 

0000000000403500 <register_tm_clones>:
  403500:	be 00 6f 61 00       	mov    $0x616f00,%esi
  403505:	48 81 ee 00 6f 61 00 	sub    $0x616f00,%rsi
  40350c:	48 c1 fe 03          	sar    $0x3,%rsi
  403510:	48 89 f0             	mov    %rsi,%rax
  403513:	48 c1 e8 3f          	shr    $0x3f,%rax
  403517:	48 01 c6             	add    %rax,%rsi
  40351a:	48 d1 fe             	sar    %rsi
  40351d:	74 11                	je     403530 <register_tm_clones+0x30>
  40351f:	b8 00 00 00 00       	mov    $0x0,%eax
  403524:	48 85 c0             	test   %rax,%rax
  403527:	74 07                	je     403530 <register_tm_clones+0x30>
  403529:	bf 00 6f 61 00       	mov    $0x616f00,%edi
  40352e:	ff e0                	jmpq   *%rax
  403530:	c3                   	retq   
  403531:	0f 1f 44 00 00       	nopl   0x0(%rax,%rax,1)
  403536:	66 2e 0f 1f 84 00 00 	nopw   %cs:0x0(%rax,%rax,1)
  40353d:	00 00 00 

0000000000403540 <__do_global_dtors_aux>:
  403540:	80 3d d1 39 21 00 00 	cmpb   $0x0,0x2139d1(%rip)        # 616f18 <completed.7242>
  403547:	75 17                	jne    403560 <__do_global_dtors_aux+0x20>
  403549:	55                   	push   %rbp
  40354a:	48 89 e5             	mov    %rsp,%rbp
  40354d:	e8 7e ff ff ff       	callq  4034d0 <deregister_tm_clones>
  403552:	c6 05 bf 39 21 00 01 	movb   $0x1,0x2139bf(%rip)        # 616f18 <completed.7242>
  403559:	5d                   	pop    %rbp
  40355a:	c3                   	retq   
  40355b:	0f 1f 44 00 00       	nopl   0x0(%rax,%rax,1)
  403560:	c3                   	retq   
  403561:	0f 1f 44 00 00       	nopl   0x0(%rax,%rax,1)
  403566:	66 2e 0f 1f 84 00 00 	nopw   %cs:0x0(%rax,%rax,1)
  40356d:	00 00 00 

0000000000403570 <frame_dummy>:
  403570:	eb 8e                	jmp    403500 <register_tm_clones>
  403572:	66 2e 0f 1f 84 00 00 	nopw   %cs:0x0(%rax,%rax,1)
  403579:	00 00 00 
  40357c:	0f 1f 40 00          	nopl   0x0(%rax)

0000000000403580 <handle_hup>:
    got_hup = 1;
  403580:	c7 05 a2 39 21 00 01 	movl   $0x1,0x2139a2(%rip)        # 616f2c <got_hup>
  403587:	00 00 00 
    }
  40358a:	c3                   	retq   
  40358b:	0f 1f 44 00 00       	nopl   0x0(%rax,%rax,1)

0000000000403590 <thttpd_logstats>:


/* Generate debugging statistics syslog message. */
static void
thttpd_logstats( long secs )
    {
  403590:	48 83 ec 08          	sub    $0x8,%rsp
    if ( secs > 0 )
  403594:	48 85 ff             	test   %rdi,%rdi
  403597:	7e 5a                	jle    4035f3 <thttpd_logstats+0x63>
	syslog( LOG_INFO,
	    "  thttpd - %ld connections (%g/sec), %d max simultaneous, %lld bytes (%g/sec), %d httpd_conns allocated",
	    stats_connections, (float) stats_connections / secs,
	    stats_simultaneous, (int64_t) stats_bytes,
	    (float) stats_bytes / secs, httpd_conn_count );
  403599:	4c 8b 05 20 42 21 00 	mov    0x214220(%rip),%r8        # 6177c0 <stats_bytes>
  4035a0:	66 0f ef d2          	pxor   %xmm2,%xmm2
  4035a4:	66 0f ef c9          	pxor   %xmm1,%xmm1
	    stats_connections, (float) stats_connections / secs,
  4035a8:	66 0f ef c0          	pxor   %xmm0,%xmm0
	    (float) stats_bytes / secs, httpd_conn_count );
  4035ac:	f3 48 0f 2a d7       	cvtsi2ss %rdi,%xmm2
	syslog( LOG_INFO,
  4035b1:	be 68 e7 40 00       	mov    $0x40e768,%esi
  4035b6:	bf 06 00 00 00       	mov    $0x6,%edi
	    stats_connections, (float) stats_connections / secs,
  4035bb:	48 8b 15 1e 42 21 00 	mov    0x21421e(%rip),%rdx        # 6177e0 <stats_connections>
	    (float) stats_bytes / secs, httpd_conn_count );
  4035c2:	f3 49 0f 2a c8       	cvtsi2ss %r8,%xmm1
	syslog( LOG_INFO,
  4035c7:	8b 0d fb 41 21 00    	mov    0x2141fb(%rip),%ecx        # 6177c8 <stats_simultaneous>
  4035cd:	b8 02 00 00 00       	mov    $0x2,%eax
  4035d2:	44 8b 0d 5f 39 21 00 	mov    0x21395f(%rip),%r9d        # 616f38 <httpd_conn_count>
	    stats_connections, (float) stats_connections / secs,
  4035d9:	f3 48 0f 2a c2       	cvtsi2ss %rdx,%xmm0
	    (float) stats_bytes / secs, httpd_conn_count );
  4035de:	f3 0f 5e ca          	divss  %xmm2,%xmm1
	    stats_connections, (float) stats_connections / secs,
  4035e2:	f3 0f 5e c2          	divss  %xmm2,%xmm0
	syslog( LOG_INFO,
  4035e6:	f3 0f 5a c9          	cvtss2sd %xmm1,%xmm1
  4035ea:	f3 0f 5a c0          	cvtss2sd %xmm0,%xmm0
  4035ee:	e8 2d f0 ff ff       	callq  402620 <syslog@plt>
    stats_connections = 0;
  4035f3:	48 c7 05 e2 41 21 00 	movq   $0x0,0x2141e2(%rip)        # 6177e0 <stats_connections>
  4035fa:	00 00 00 00 
    stats_bytes = 0;
  4035fe:	48 c7 05 b7 41 21 00 	movq   $0x0,0x2141b7(%rip)        # 6177c0 <stats_bytes>
  403605:	00 00 00 00 
    stats_simultaneous = 0;
  403609:	c7 05 b5 41 21 00 00 	movl   $0x0,0x2141b5(%rip)        # 6177c8 <stats_simultaneous>
  403610:	00 00 00 
    }
  403613:	48 83 c4 08          	add    $0x8,%rsp
  403617:	c3                   	retq   
  403618:	0f 1f 84 00 00 00 00 	nopl   0x0(%rax,%rax,1)
  40361f:	00 

0000000000403620 <update_throttles>:
    for ( tnum = 0; tnum < numthrottles; ++tnum )
  403620:	44 8b 05 2d 39 21 00 	mov    0x21392d(%rip),%r8d        # 616f54 <numthrottles>
    {
  403627:	41 54                	push   %r12
  403629:	49 bc 56 55 55 55 55 	movabs $0x5555555555555556,%r12
  403630:	55 55 55 
  403633:	55                   	push   %rbp
  403634:	31 ed                	xor    %ebp,%ebp
  403636:	53                   	push   %rbx
  403637:	31 db                	xor    %ebx,%ebx
    for ( tnum = 0; tnum < numthrottles; ++tnum )
  403639:	45 85 c0             	test   %r8d,%r8d
  40363c:	7f 75                	jg     4036b3 <update_throttles+0x93>
  40363e:	e9 ed 00 00 00       	jmpq   403730 <update_throttles+0x110>
  403643:	0f 1f 44 00 00       	nopl   0x0(%rax,%rax,1)
		syslog( LOG_NOTICE, "throttle #%d '%.80s' rate %ld greatly exceeding limit %ld; %d sending", tnum, throttles[tnum].pattern, throttles[tnum].rate, throttles[tnum].max_limit, throttles[tnum].num_sending );
  403648:	48 83 ec 08          	sub    $0x8,%rsp
  40364c:	89 da                	mov    %ebx,%edx
  40364e:	be d0 e7 40 00       	mov    $0x40e7d0,%esi
  403653:	bf 05 00 00 00       	mov    $0x5,%edi
  403658:	50                   	push   %rax
		syslog( LOG_INFO, "throttle #%d '%.80s' rate %ld exceeding limit %ld; %d sending", tnum, throttles[tnum].pattern, throttles[tnum].rate, throttles[tnum].max_limit, throttles[tnum].num_sending );
  403659:	31 c0                	xor    %eax,%eax
  40365b:	e8 c0 ef ff ff       	callq  402620 <syslog@plt>
  403660:	48 8b 0d f1 38 21 00 	mov    0x2138f1(%rip),%rcx        # 616f58 <throttles>
  403667:	5e                   	pop    %rsi
  403668:	5f                   	pop    %rdi
  403669:	48 01 e9             	add    %rbp,%rcx
  40366c:	4c 8b 41 18          	mov    0x18(%rcx),%r8
	if ( throttles[tnum].rate < throttles[tnum].min_limit && throttles[tnum].num_sending != 0 )
  403670:	4c 8b 49 10          	mov    0x10(%rcx),%r9
  403674:	4d 39 c1             	cmp    %r8,%r9
  403677:	7e 27                	jle    4036a0 <update_throttles+0x80>
  403679:	8b 41 28             	mov    0x28(%rcx),%eax
  40367c:	85 c0                	test   %eax,%eax
  40367e:	74 20                	je     4036a0 <update_throttles+0x80>
	    syslog( LOG_NOTICE, "throttle #%d '%.80s' rate %ld lower than minimum %ld; %d sending", tnum, throttles[tnum].pattern, throttles[tnum].rate, throttles[tnum].min_limit, throttles[tnum].num_sending );
  403680:	48 83 ec 08          	sub    $0x8,%rsp
  403684:	48 8b 09             	mov    (%rcx),%rcx
  403687:	89 da                	mov    %ebx,%edx
  403689:	be 58 e8 40 00       	mov    $0x40e858,%esi
  40368e:	50                   	push   %rax
  40368f:	bf 05 00 00 00       	mov    $0x5,%edi
  403694:	31 c0                	xor    %eax,%eax
  403696:	e8 85 ef ff ff       	callq  402620 <syslog@plt>
  40369b:	58                   	pop    %rax
  40369c:	5a                   	pop    %rdx
  40369d:	0f 1f 00             	nopl   (%rax)
    for ( tnum = 0; tnum < numthrottles; ++tnum )
  4036a0:	83 c3 01             	add    $0x1,%ebx
  4036a3:	48 83 c5 30          	add    $0x30,%rbp
  4036a7:	39 1d a7 38 21 00    	cmp    %ebx,0x2138a7(%rip)        # 616f54 <numthrottles>
  4036ad:	0f 8e 7d 00 00 00    	jle    403730 <update_throttles+0x110>
	throttles[tnum].rate = ( 2 * throttles[tnum].rate + throttles[tnum].bytes_since_avg / THROTTLE_TIME ) / 3;
  4036b3:	48 8b 0d 9e 38 21 00 	mov    0x21389e(%rip),%rcx        # 616f58 <throttles>
  4036ba:	48 01 e9             	add    %rbp,%rcx
  4036bd:	48 8b 51 20          	mov    0x20(%rcx),%rdx
  4036c1:	48 8b 71 18          	mov    0x18(%rcx),%rsi
	throttles[tnum].bytes_since_avg = 0;
  4036c5:	48 c7 41 20 00 00 00 	movq   $0x0,0x20(%rcx)
  4036cc:	00 
	if ( throttles[tnum].rate > throttles[tnum].max_limit && throttles[tnum].num_sending != 0 )
  4036cd:	4c 8b 49 08          	mov    0x8(%rcx),%r9
	throttles[tnum].rate = ( 2 * throttles[tnum].rate + throttles[tnum].bytes_since_avg / THROTTLE_TIME ) / 3;
  4036d1:	48 89 d0             	mov    %rdx,%rax
  4036d4:	48 c1 e8 3f          	shr    $0x3f,%rax
  4036d8:	48 01 d0             	add    %rdx,%rax
  4036db:	48 d1 f8             	sar    %rax
  4036de:	48 8d 34 70          	lea    (%rax,%rsi,2),%rsi
  4036e2:	48 89 f0             	mov    %rsi,%rax
  4036e5:	48 c1 fe 3f          	sar    $0x3f,%rsi
  4036e9:	49 f7 ec             	imul   %r12
  4036ec:	48 29 f2             	sub    %rsi,%rdx
  4036ef:	49 89 d0             	mov    %rdx,%r8
  4036f2:	48 89 51 18          	mov    %rdx,0x18(%rcx)
	if ( throttles[tnum].rate > throttles[tnum].max_limit && throttles[tnum].num_sending != 0 )
  4036f6:	4c 39 ca             	cmp    %r9,%rdx
  4036f9:	0f 8e 71 ff ff ff    	jle    403670 <update_throttles+0x50>
  4036ff:	8b 41 28             	mov    0x28(%rcx),%eax
  403702:	85 c0                	test   %eax,%eax
  403704:	74 9a                	je     4036a0 <update_throttles+0x80>
	    if ( throttles[tnum].rate > throttles[tnum].max_limit * 2 )
  403706:	4b 8d 14 09          	lea    (%r9,%r9,1),%rdx
  40370a:	48 8b 09             	mov    (%rcx),%rcx
  40370d:	49 39 d0             	cmp    %rdx,%r8
  403710:	0f 8f 32 ff ff ff    	jg     403648 <update_throttles+0x28>
		syslog( LOG_INFO, "throttle #%d '%.80s' rate %ld exceeding limit %ld; %d sending", tnum, throttles[tnum].pattern, throttles[tnum].rate, throttles[tnum].max_limit, throttles[tnum].num_sending );
  403716:	48 83 ec 08          	sub    $0x8,%rsp
  40371a:	89 da                	mov    %ebx,%edx
  40371c:	be 18 e8 40 00       	mov    $0x40e818,%esi
  403721:	bf 06 00 00 00       	mov    $0x6,%edi
  403726:	50                   	push   %rax
  403727:	e9 2d ff ff ff       	jmpq   403659 <update_throttles+0x39>
  40372c:	0f 1f 40 00          	nopl   0x0(%rax)
    for ( cnum = 0; cnum < max_connects; ++cnum )
  403730:	8b 05 0a 38 21 00    	mov    0x21380a(%rip),%eax        # 616f40 <max_connects>
  403736:	85 c0                	test   %eax,%eax
  403738:	0f 8e e2 00 00 00    	jle    403820 <update_throttles+0x200>
  40373e:	4c 8b 0d 03 38 21 00 	mov    0x213803(%rip),%r9        # 616f48 <connects>
  403745:	83 e8 01             	sub    $0x1,%eax
		l = throttles[tnum].max_limit / throttles[tnum].num_sending;
  403748:	4c 8b 1d 09 38 21 00 	mov    0x213809(%rip),%r11        # 616f58 <throttles>
	    c->max_limit = THROTTLE_NOLIMIT;
  40374f:	48 c7 c5 ff ff ff ff 	mov    $0xffffffffffffffff,%rbp
  403756:	48 8d 1c c0          	lea    (%rax,%rax,8),%rbx
  40375a:	48 c1 e3 04          	shl    $0x4,%rbx
  40375e:	4d 8d 81 90 00 00 00 	lea    0x90(%r9),%r8
  403765:	4c 01 c3             	add    %r8,%rbx
  403768:	eb 19                	jmp    403783 <update_throttles+0x163>
  40376a:	66 0f 1f 44 00 00    	nopw   0x0(%rax,%rax,1)
  403770:	4d 89 c1             	mov    %r8,%r9
    for ( cnum = 0; cnum < max_connects; ++cnum )
  403773:	4c 39 c3             	cmp    %r8,%rbx
  403776:	0f 84 a4 00 00 00    	je     403820 <update_throttles+0x200>
  40377c:	49 81 c0 90 00 00 00 	add    $0x90,%r8
	if ( c->conn_state == CNST_SENDING || c->conn_state == CNST_PAUSING )
  403783:	41 8b 01             	mov    (%r9),%eax
  403786:	83 e8 02             	sub    $0x2,%eax
  403789:	83 f8 01             	cmp    $0x1,%eax
  40378c:	77 e2                	ja     403770 <update_throttles+0x150>
	    for ( tind = 0; tind < c->numtnums; ++tind )
  40378e:	41 8b 49 38          	mov    0x38(%r9),%ecx
	    c->max_limit = THROTTLE_NOLIMIT;
  403792:	49 89 69 40          	mov    %rbp,0x40(%r9)
	    for ( tind = 0; tind < c->numtnums; ++tind )
  403796:	85 c9                	test   %ecx,%ecx
  403798:	7e d6                	jle    403770 <update_throttles+0x150>
		l = throttles[tnum].max_limit / throttles[tnum].num_sending;
  40379a:	49 63 41 10          	movslq 0x10(%r9),%rax
  40379e:	48 8d 04 40          	lea    (%rax,%rax,2),%rax
  4037a2:	48 c1 e0 04          	shl    $0x4,%rax
  4037a6:	4c 01 d8             	add    %r11,%rax
  4037a9:	48 63 70 28          	movslq 0x28(%rax),%rsi
  4037ad:	48 8b 40 08          	mov    0x8(%rax),%rax
  4037b1:	48 99                	cqto   
  4037b3:	48 f7 fe             	idiv   %rsi
  4037b6:	49 8d 71 14          	lea    0x14(%r9),%rsi
  4037ba:	48 89 c7             	mov    %rax,%rdi
		if ( c->max_limit == THROTTLE_NOLIMIT )
  4037bd:	8d 41 ff             	lea    -0x1(%rcx),%eax
  4037c0:	4c 8d 14 86          	lea    (%rsi,%rax,4),%r10
  4037c4:	eb 15                	jmp    4037db <update_throttles+0x1bb>
  4037c6:	66 2e 0f 1f 84 00 00 	nopw   %cs:0x0(%rax,%rax,1)
  4037cd:	00 00 00 
		    c->max_limit = MIN( c->max_limit, l );
  4037d0:	48 39 c7             	cmp    %rax,%rdi
  4037d3:	48 0f 4f f8          	cmovg  %rax,%rdi
  4037d7:	48 83 c6 04          	add    $0x4,%rsi
	    for ( tind = 0; tind < c->numtnums; ++tind )
  4037db:	4c 39 d6             	cmp    %r10,%rsi
  4037de:	74 30                	je     403810 <update_throttles+0x1f0>
		l = throttles[tnum].max_limit / throttles[tnum].num_sending;
  4037e0:	48 63 06             	movslq (%rsi),%rax
  4037e3:	48 8d 0c 40          	lea    (%rax,%rax,2),%rcx
  4037e7:	48 c1 e1 04          	shl    $0x4,%rcx
  4037eb:	4c 01 d9             	add    %r11,%rcx
  4037ee:	48 8b 41 08          	mov    0x8(%rcx),%rax
  4037f2:	4c 63 61 28          	movslq 0x28(%rcx),%r12
  4037f6:	48 99                	cqto   
  4037f8:	49 f7 fc             	idiv   %r12
		if ( c->max_limit == THROTTLE_NOLIMIT )
  4037fb:	48 83 ff ff          	cmp    $0xffffffffffffffff,%rdi
  4037ff:	75 cf                	jne    4037d0 <update_throttles+0x1b0>
		l = throttles[tnum].max_limit / throttles[tnum].num_sending;
  403801:	48 89 c7             	mov    %rax,%rdi
  403804:	eb d1                	jmp    4037d7 <update_throttles+0x1b7>
  403806:	66 2e 0f 1f 84 00 00 	nopw   %cs:0x0(%rax,%rax,1)
  40380d:	00 00 00 
  403810:	49 89 79 40          	mov    %rdi,0x40(%r9)
  403814:	4d 89 c1             	mov    %r8,%r9
    for ( cnum = 0; cnum < max_connects; ++cnum )
  403817:	4c 39 c3             	cmp    %r8,%rbx
  40381a:	0f 85 5c ff ff ff    	jne    40377c <update_throttles+0x15c>
    }
  403820:	5b                   	pop    %rbx
  403821:	5d                   	pop    %rbp
  403822:	41 5c                	pop    %r12
  403824:	c3                   	retq   
  403825:	90                   	nop
  403826:	66 2e 0f 1f 84 00 00 	nopw   %cs:0x0(%rax,%rax,1)
  40382d:	00 00 00 

0000000000403830 <no_value_required>:
    if ( value != (char*) 0 )
  403830:	48 85 f6             	test   %rsi,%rsi
  403833:	75 01                	jne    403836 <no_value_required+0x6>
  403835:	c3                   	retq   
    {
  403836:	50                   	push   %rax
  403837:	48 89 f9             	mov    %rdi,%rcx
	(void) fprintf(
  40383a:	48 8b 15 b7 37 21 00 	mov    0x2137b7(%rip),%rdx        # 616ff8 <argv0>
  403841:	be a0 e8 40 00       	mov    $0x40e8a0,%esi
  403846:	48 8b 3d c3 36 21 00 	mov    0x2136c3(%rip),%rdi        # 616f10 <stderr@@GLIBC_2.2.5>
  40384d:	31 c0                	xor    %eax,%eax
  40384f:	e8 dc ec ff ff       	callq  402530 <fprintf@plt>
	exit( 1 );
  403854:	bf 01 00 00 00       	mov    $0x1,%edi
  403859:	e8 a2 ef ff ff       	callq  402800 <exit@plt>
  40385e:	66 90                	xchg   %ax,%ax

0000000000403860 <value_required>:
    if ( value == (char*) 0 )
  403860:	48 85 f6             	test   %rsi,%rsi
  403863:	74 01                	je     403866 <value_required+0x6>
  403865:	c3                   	retq   
    {
  403866:	50                   	push   %rax
  403867:	48 89 f9             	mov    %rdi,%rcx
	(void) fprintf(
  40386a:	48 8b 15 87 37 21 00 	mov    0x213787(%rip),%rdx        # 616ff8 <argv0>
  403871:	be c8 e8 40 00       	mov    $0x40e8c8,%esi
  403876:	48 8b 3d 93 36 21 00 	mov    0x213693(%rip),%rdi        # 616f10 <stderr@@GLIBC_2.2.5>
  40387d:	31 c0                	xor    %eax,%eax
  40387f:	e8 ac ec ff ff       	callq  402530 <fprintf@plt>
	exit( 1 );
  403884:	bf 01 00 00 00       	mov    $0x1,%edi
  403889:	e8 72 ef ff ff       	callq  402800 <exit@plt>
  40388e:	66 90                	xchg   %ax,%ax

0000000000403890 <usage>:
    {
  403890:	48 83 ec 08          	sub    $0x8,%rsp
    (void) fprintf( stderr,
  403894:	48 8b 3d 75 36 21 00 	mov    0x213675(%rip),%rdi        # 616f10 <stderr@@GLIBC_2.2.5>
  40389b:	48 8b 15 56 37 21 00 	mov    0x213756(%rip),%rdx        # 616ff8 <argv0>
  4038a2:	31 c0                	xor    %eax,%eax
  4038a4:	be f0 e8 40 00       	mov    $0x40e8f0,%esi
  4038a9:	e8 82 ec ff ff       	callq  402530 <fprintf@plt>
    exit( 1 );
  4038ae:	bf 01 00 00 00       	mov    $0x1,%edi
  4038b3:	e8 48 ef ff ff       	callq  402800 <exit@plt>
  4038b8:	0f 1f 84 00 00 00 00 	nopl   0x0(%rax,%rax,1)
  4038bf:	00 

00000000004038c0 <wakeup_connection>:
    if ( c->conn_state == CNST_PAUSING )
  4038c0:	83 3f 03             	cmpl   $0x3,(%rdi)
    c->wakeup_timer = (Timer*) 0;
  4038c3:	48 c7 47 60 00 00 00 	movq   $0x0,0x60(%rdi)
  4038ca:	00 
    if ( c->conn_state == CNST_PAUSING )
  4038cb:	74 03                	je     4038d0 <wakeup_connection+0x10>
    }
  4038cd:	c3                   	retq   
  4038ce:	66 90                	xchg   %ax,%ax
	fdwatch_add_fd( c->hc->conn_fd, c, FDW_WRITE );
  4038d0:	48 8b 47 08          	mov    0x8(%rdi),%rax
	c->conn_state = CNST_SENDING;
  4038d4:	c7 07 02 00 00 00    	movl   $0x2,(%rdi)
	fdwatch_add_fd( c->hc->conn_fd, c, FDW_WRITE );
  4038da:	48 89 fe             	mov    %rdi,%rsi
  4038dd:	ba 01 00 00 00       	mov    $0x1,%edx
  4038e2:	8b 80 c0 02 00 00    	mov    0x2c0(%rax),%eax
  4038e8:	89 c7                	mov    %eax,%edi
  4038ea:	e9 b1 26 00 00       	jmpq   405fa0 <fdwatch_add_fd>
  4038ef:	90                   	nop

00000000004038f0 <logstats>:
    {
  4038f0:	53                   	push   %rbx
  4038f1:	48 83 ec 10          	sub    $0x10,%rsp
    if ( nowP == (struct timeval*) 0 )
  4038f5:	48 85 ff             	test   %rdi,%rdi
  4038f8:	74 6e                	je     403968 <logstats+0x78>
    now = nowP->tv_sec;
  4038fa:	48 8b 07             	mov    (%rdi),%rax
	stats_secs = 1;	/* fudge */
  4038fd:	b9 01 00 00 00       	mov    $0x1,%ecx
    syslog( LOG_INFO,
  403902:	be d0 e9 40 00       	mov    $0x40e9d0,%esi
  403907:	bf 06 00 00 00       	mov    $0x6,%edi
    up_secs = now - start_time;
  40390c:	48 89 c2             	mov    %rax,%rdx
	stats_secs = 1;	/* fudge */
  40390f:	48 89 c3             	mov    %rax,%rbx
    up_secs = now - start_time;
  403912:	48 2b 15 b7 3e 21 00 	sub    0x213eb7(%rip),%rdx        # 6177d0 <start_time>
	stats_secs = 1;	/* fudge */
  403919:	48 2b 1d b8 3e 21 00 	sub    0x213eb8(%rip),%rbx        # 6177d8 <stats_time>
  403920:	48 0f 44 d9          	cmove  %rcx,%rbx
    stats_time = now;
  403924:	48 89 05 ad 3e 21 00 	mov    %rax,0x213ead(%rip)        # 6177d8 <stats_time>
    syslog( LOG_INFO,
  40392b:	31 c0                	xor    %eax,%eax
  40392d:	48 89 d9             	mov    %rbx,%rcx
  403930:	e8 eb ec ff ff       	callq  402620 <syslog@plt>
    thttpd_logstats( stats_secs );
  403935:	48 89 df             	mov    %rbx,%rdi
  403938:	e8 53 fc ff ff       	callq  403590 <thttpd_logstats>
    httpd_logstats( stats_secs );
  40393d:	48 89 df             	mov    %rbx,%rdi
  403940:	e8 0b 93 00 00       	callq  40cc50 <httpd_logstats>
    mmc_logstats( stats_secs );
  403945:	48 89 df             	mov    %rbx,%rdi
  403948:	e8 63 9c 00 00       	callq  40d5b0 <mmc_logstats>
    fdwatch_logstats( stats_secs );
  40394d:	48 89 df             	mov    %rbx,%rdi
  403950:	e8 fb 27 00 00       	callq  406150 <fdwatch_logstats>
    tmr_logstats( stats_secs );
  403955:	48 89 df             	mov    %rbx,%rdi
  403958:	e8 f3 a2 00 00       	callq  40dc50 <tmr_logstats>
    }
  40395d:	48 83 c4 10          	add    $0x10,%rsp
  403961:	5b                   	pop    %rbx
  403962:	c3                   	retq   
  403963:	0f 1f 44 00 00       	nopl   0x0(%rax,%rax,1)
	(void) gettimeofday( &tv, (struct timezone*) 0 );
  403968:	48 89 e7             	mov    %rsp,%rdi
  40396b:	31 f6                	xor    %esi,%esi
  40396d:	e8 8e ea ff ff       	callq  402400 <gettimeofday@plt>
	nowP = &tv;
  403972:	48 89 e7             	mov    %rsp,%rdi
  403975:	eb 83                	jmp    4038fa <logstats+0xa>
  403977:	66 0f 1f 84 00 00 00 	nopw   0x0(%rax,%rax,1)
  40397e:	00 00 

0000000000403980 <show_stats>:
    logstats( nowP );
  403980:	48 89 f7             	mov    %rsi,%rdi
  403983:	e9 68 ff ff ff       	jmpq   4038f0 <logstats>
  403988:	0f 1f 84 00 00 00 00 	nopl   0x0(%rax,%rax,1)
  40398f:	00 

0000000000403990 <handle_usr2>:
    {
  403990:	55                   	push   %rbp
  403991:	53                   	push   %rbx
  403992:	48 83 ec 08          	sub    $0x8,%rsp
    const int oerrno = errno;
  403996:	e8 95 e8 ff ff       	callq  402230 <__errno_location@plt>
    logstats( (struct timeval*) 0 );
  40399b:	31 ff                	xor    %edi,%edi
    const int oerrno = errno;
  40399d:	8b 28                	mov    (%rax),%ebp
  40399f:	48 89 c3             	mov    %rax,%rbx
    logstats( (struct timeval*) 0 );
  4039a2:	e8 49 ff ff ff       	callq  4038f0 <logstats>
    errno = oerrno;
  4039a7:	89 2b                	mov    %ebp,(%rbx)
    }
  4039a9:	48 83 c4 08          	add    $0x8,%rsp
  4039ad:	5b                   	pop    %rbx
  4039ae:	5d                   	pop    %rbp
  4039af:	c3                   	retq   

00000000004039b0 <occasional>:
    {
  4039b0:	48 83 ec 08          	sub    $0x8,%rsp
    mmc_cleanup( nowP );
  4039b4:	48 89 f7             	mov    %rsi,%rdi
  4039b7:	e8 14 9a 00 00       	callq  40d3d0 <mmc_cleanup>
    tmr_cleanup();
  4039bc:	e8 cf a1 00 00       	callq  40db90 <tmr_cleanup>
    watchdog_flag = 1;		/* let the watchdog know that we are alive */
  4039c1:	c7 05 59 35 21 00 01 	movl   $0x1,0x213559(%rip)        # 616f24 <watchdog_flag>
  4039c8:	00 00 00 
    }
  4039cb:	48 83 c4 08          	add    $0x8,%rsp
  4039cf:	c3                   	retq   

00000000004039d0 <handle_alrm>:
    {
  4039d0:	55                   	push   %rbp
  4039d1:	53                   	push   %rbx
  4039d2:	48 83 ec 08          	sub    $0x8,%rsp
    const int oerrno = errno;
  4039d6:	e8 55 e8 ff ff       	callq  402230 <__errno_location@plt>
  4039db:	48 89 c3             	mov    %rax,%rbx
  4039de:	8b 28                	mov    (%rax),%ebp
    if ( ! watchdog_flag )
  4039e0:	8b 05 3e 35 21 00    	mov    0x21353e(%rip),%eax        # 616f24 <watchdog_flag>
  4039e6:	85 c0                	test   %eax,%eax
  4039e8:	74 1d                	je     403a07 <handle_alrm+0x37>
    watchdog_flag = 0;
  4039ea:	c7 05 30 35 21 00 00 	movl   $0x0,0x213530(%rip)        # 616f24 <watchdog_flag>
  4039f1:	00 00 00 
    (void) alarm( OCCASIONAL_TIME * 3 );
  4039f4:	bf 68 01 00 00       	mov    $0x168,%edi
  4039f9:	e8 22 ea ff ff       	callq  402420 <alarm@plt>
    errno = oerrno;
  4039fe:	89 2b                	mov    %ebp,(%rbx)
    }
  403a00:	48 83 c4 08          	add    $0x8,%rsp
  403a04:	5b                   	pop    %rbx
  403a05:	5d                   	pop    %rbp
  403a06:	c3                   	retq   
	(void) chdir( "/tmp" );
  403a07:	bf b6 ee 40 00       	mov    $0x40eeb6,%edi
  403a0c:	e8 6f e9 ff ff       	callq  402380 <chdir@plt>
	abort();
  403a11:	e8 0a e8 ff ff       	callq  402220 <abort@plt>
  403a16:	66 2e 0f 1f 84 00 00 	nopw   %cs:0x0(%rax,%rax,1)
  403a1d:	00 00 00 

0000000000403a20 <handle_chld>:
    {
  403a20:	41 54                	push   %r12
  403a22:	55                   	push   %rbp
	    --hs->cgi_count;
  403a23:	31 ed                	xor    %ebp,%ebp
    {
  403a25:	53                   	push   %rbx
  403a26:	48 83 ec 10          	sub    $0x10,%rsp
    const int oerrno = errno;
  403a2a:	e8 01 e8 ff ff       	callq  402230 <__errno_location@plt>
  403a2f:	44 8b 20             	mov    (%rax),%r12d
  403a32:	48 89 c3             	mov    %rax,%rbx
	pid = waitpid( (pid_t) -1, &status, WNOHANG );
  403a35:	ba 01 00 00 00       	mov    $0x1,%edx
  403a3a:	48 8d 74 24 0c       	lea    0xc(%rsp),%rsi
  403a3f:	bf ff ff ff ff       	mov    $0xffffffff,%edi
  403a44:	e8 d7 ec ff ff       	callq  402720 <waitpid@plt>
	if ( (int) pid == 0 )		/* none left */
  403a49:	85 c0                	test   %eax,%eax
  403a4b:	74 34                	je     403a81 <handle_chld+0x61>
	if ( (int) pid < 0 )
  403a4d:	78 21                	js     403a70 <handle_chld+0x50>
	if ( hs != (httpd_server*) 0 )
  403a4f:	48 8b 15 da 34 21 00 	mov    0x2134da(%rip),%rdx        # 616f30 <hs>
  403a56:	48 85 d2             	test   %rdx,%rdx
  403a59:	74 da                	je     403a35 <handle_chld+0x15>
	    --hs->cgi_count;
  403a5b:	8b 42 24             	mov    0x24(%rdx),%eax
  403a5e:	83 e8 01             	sub    $0x1,%eax
  403a61:	0f 48 c5             	cmovs  %ebp,%eax
  403a64:	89 42 24             	mov    %eax,0x24(%rdx)
  403a67:	eb cc                	jmp    403a35 <handle_chld+0x15>
  403a69:	0f 1f 80 00 00 00 00 	nopl   0x0(%rax)
	    if ( errno == EINTR || errno == EAGAIN )
  403a70:	8b 03                	mov    (%rbx),%eax
  403a72:	83 f8 04             	cmp    $0x4,%eax
  403a75:	74 be                	je     403a35 <handle_chld+0x15>
  403a77:	83 f8 0b             	cmp    $0xb,%eax
  403a7a:	74 b9                	je     403a35 <handle_chld+0x15>
	    if ( errno != ECHILD )
  403a7c:	83 f8 0a             	cmp    $0xa,%eax
  403a7f:	75 0f                	jne    403a90 <handle_chld+0x70>
    errno = oerrno;
  403a81:	44 89 23             	mov    %r12d,(%rbx)
    }
  403a84:	48 83 c4 10          	add    $0x10,%rsp
  403a88:	5b                   	pop    %rbx
  403a89:	5d                   	pop    %rbp
  403a8a:	41 5c                	pop    %r12
  403a8c:	c3                   	retq   
  403a8d:	0f 1f 00             	nopl   (%rax)
		syslog( LOG_ERR, "child wait - %m" );
  403a90:	be bb ee 40 00       	mov    $0x40eebb,%esi
  403a95:	bf 03 00 00 00       	mov    $0x3,%edi
  403a9a:	31 c0                	xor    %eax,%eax
  403a9c:	e8 7f eb ff ff       	callq  402620 <syslog@plt>
    errno = oerrno;
  403aa1:	44 89 23             	mov    %r12d,(%rbx)
    }
  403aa4:	48 83 c4 10          	add    $0x10,%rsp
  403aa8:	5b                   	pop    %rbx
  403aa9:	5d                   	pop    %rbp
  403aaa:	41 5c                	pop    %r12
  403aac:	c3                   	retq   
  403aad:	0f 1f 00             	nopl   (%rax)

0000000000403ab0 <e_strdup>:
    {
  403ab0:	48 83 ec 08          	sub    $0x8,%rsp
    newstr = strdup( oldstr );
  403ab4:	e8 97 ed ff ff       	callq  402850 <strdup@plt>
    if ( newstr == (char*) 0 )
  403ab9:	48 85 c0             	test   %rax,%rax
  403abc:	74 05                	je     403ac3 <e_strdup+0x13>
    }
  403abe:	48 83 c4 08          	add    $0x8,%rsp
  403ac2:	c3                   	retq   
	syslog( LOG_CRIT, "out of memory copying a string" );
  403ac3:	be f8 e9 40 00       	mov    $0x40e9f8,%esi
  403ac8:	bf 02 00 00 00       	mov    $0x2,%edi
  403acd:	e8 4e eb ff ff       	callq  402620 <syslog@plt>
	(void) fprintf( stderr, "%s: out of memory copying a string\n", argv0 );
  403ad2:	48 8b 3d 37 34 21 00 	mov    0x213437(%rip),%rdi        # 616f10 <stderr@@GLIBC_2.2.5>
  403ad9:	48 8b 15 18 35 21 00 	mov    0x213518(%rip),%rdx        # 616ff8 <argv0>
  403ae0:	31 c0                	xor    %eax,%eax
  403ae2:	be 18 ea 40 00       	mov    $0x40ea18,%esi
  403ae7:	e8 44 ea ff ff       	callq  402530 <fprintf@plt>
	exit( 1 );
  403aec:	bf 01 00 00 00       	mov    $0x1,%edi
  403af1:	e8 0a ed ff ff       	callq  402800 <exit@plt>
  403af6:	66 2e 0f 1f 84 00 00 	nopw   %cs:0x0(%rax,%rax,1)
  403afd:	00 00 00 

0000000000403b00 <read_config>:
    {
  403b00:	41 56                	push   %r14
    fp = fopen( filename, "r" );
  403b02:	be ad ef 40 00       	mov    $0x40efad,%esi
    {
  403b07:	41 55                	push   %r13
  403b09:	41 54                	push   %r12
  403b0b:	55                   	push   %rbp
  403b0c:	53                   	push   %rbx
  403b0d:	48 89 fb             	mov    %rdi,%rbx
  403b10:	48 83 ec 70          	sub    $0x70,%rsp
    fp = fopen( filename, "r" );
  403b14:	e8 47 ec ff ff       	callq  402760 <fopen@plt>
    if ( fp == (FILE*) 0 )
  403b19:	48 85 c0             	test   %rax,%rax
  403b1c:	0f 84 4a 05 00 00    	je     40406c <read_config+0x56c>
	    while ( *cp2 == ' ' || *cp2 == '\t' || *cp2 == '\n' || *cp2 == '\r' )
  403b22:	48 bd 00 26 00 00 01 	movabs $0x100002600,%rbp
  403b29:	00 00 00 
  403b2c:	49 89 c6             	mov    %rax,%r14
    while ( fgets( line, 1000, fp ) != (char*) 0 )
  403b2f:	4c 89 f2             	mov    %r14,%rdx
  403b32:	be e8 03 00 00       	mov    $0x3e8,%esi
  403b37:	48 89 e7             	mov    %rsp,%rdi
  403b3a:	e8 a1 e9 ff ff       	callq  4024e0 <fgets@plt>
  403b3f:	48 85 c0             	test   %rax,%rax
  403b42:	0f 84 1d 04 00 00    	je     403f65 <read_config+0x465>
	if ( ( cp = strchr( line, '#' ) ) != (char*) 0 )
  403b48:	be 23 00 00 00       	mov    $0x23,%esi
  403b4d:	48 89 e7             	mov    %rsp,%rdi
  403b50:	e8 6b e8 ff ff       	callq  4023c0 <strchr@plt>
  403b55:	48 85 c0             	test   %rax,%rax
  403b58:	74 03                	je     403b5d <read_config+0x5d>
	    *cp = '\0';
  403b5a:	c6 00 00             	movb   $0x0,(%rax)
	cp += strspn( cp, " \t\n\r" );
  403b5d:	be cb ee 40 00       	mov    $0x40eecb,%esi
  403b62:	48 89 e7             	mov    %rsp,%rdi
  403b65:	e8 26 e9 ff ff       	callq  402490 <strspn@plt>
  403b6a:	4c 8d 24 04          	lea    (%rsp,%rax,1),%r12
	while ( *cp != '\0' )
  403b6e:	41 80 3c 24 00       	cmpb   $0x0,(%r12)
  403b73:	74 ba                	je     403b2f <read_config+0x2f>
  403b75:	0f 1f 00             	nopl   (%rax)
	    cp2 = cp + strcspn( cp, " \t\n\r" );
  403b78:	be cb ee 40 00       	mov    $0x40eecb,%esi
  403b7d:	4c 89 e7             	mov    %r12,%rdi
  403b80:	e8 2b e9 ff ff       	callq  4024b0 <strcspn@plt>
  403b85:	49 8d 1c 04          	lea    (%r12,%rax,1),%rbx
	    while ( *cp2 == ' ' || *cp2 == '\t' || *cp2 == '\n' || *cp2 == '\r' )
  403b89:	0f b6 03             	movzbl (%rbx),%eax
  403b8c:	3c 20                	cmp    $0x20,%al
  403b8e:	77 24                	ja     403bb4 <read_config+0xb4>
  403b90:	48 0f a3 c5          	bt     %rax,%rbp
  403b94:	73 1e                	jae    403bb4 <read_config+0xb4>
  403b96:	66 2e 0f 1f 84 00 00 	nopw   %cs:0x0(%rax,%rax,1)
  403b9d:	00 00 00 
		*cp2++ = '\0';
  403ba0:	48 83 c3 01          	add    $0x1,%rbx
	    while ( *cp2 == ' ' || *cp2 == '\t' || *cp2 == '\n' || *cp2 == '\r' )
  403ba4:	0f b6 13             	movzbl (%rbx),%edx
		*cp2++ = '\0';
  403ba7:	c6 43 ff 00          	movb   $0x0,-0x1(%rbx)
	    while ( *cp2 == ' ' || *cp2 == '\t' || *cp2 == '\n' || *cp2 == '\r' )
  403bab:	80 fa 20             	cmp    $0x20,%dl
  403bae:	0f 86 74 02 00 00    	jbe    403e28 <read_config+0x328>
	    value = strchr( name, '=' );
  403bb4:	be 3d 00 00 00       	mov    $0x3d,%esi
  403bb9:	4c 89 e7             	mov    %r12,%rdi
  403bbc:	45 31 ed             	xor    %r13d,%r13d
  403bbf:	e8 fc e7 ff ff       	callq  4023c0 <strchr@plt>
	    if ( value != (char*) 0 )
  403bc4:	48 85 c0             	test   %rax,%rax
  403bc7:	74 07                	je     403bd0 <read_config+0xd0>
		*value++ = '\0';
  403bc9:	c6 00 00             	movb   $0x0,(%rax)
  403bcc:	4c 8d 68 01          	lea    0x1(%rax),%r13
	    if ( strcasecmp( name, "debug" ) == 0 )
  403bd0:	be d0 ee 40 00       	mov    $0x40eed0,%esi
  403bd5:	4c 89 e7             	mov    %r12,%rdi
  403bd8:	e8 13 e6 ff ff       	callq  4021f0 <strcasecmp@plt>
  403bdd:	85 c0                	test   %eax,%eax
  403bdf:	0f 84 5b 02 00 00    	je     403e40 <read_config+0x340>
	    else if ( strcasecmp( name, "port" ) == 0 )
  403be5:	be d6 ee 40 00       	mov    $0x40eed6,%esi
  403bea:	4c 89 e7             	mov    %r12,%rdi
  403bed:	e8 fe e5 ff ff       	callq  4021f0 <strcasecmp@plt>
  403bf2:	85 c0                	test   %eax,%eax
  403bf4:	0f 84 7c 02 00 00    	je     403e76 <read_config+0x376>
	    else if ( strcasecmp( name, "dir" ) == 0 )
  403bfa:	be e9 ee 40 00       	mov    $0x40eee9,%esi
  403bff:	4c 89 e7             	mov    %r12,%rdi
  403c02:	e8 e9 e5 ff ff       	callq  4021f0 <strcasecmp@plt>
  403c07:	85 c0                	test   %eax,%eax
  403c09:	0f 84 83 02 00 00    	je     403e92 <read_config+0x392>
	    else if ( strcasecmp( name, "chroot" ) == 0 )
  403c0f:	be dd ee 40 00       	mov    $0x40eedd,%esi
  403c14:	4c 89 e7             	mov    %r12,%rdi
  403c17:	e8 d4 e5 ff ff       	callq  4021f0 <strcasecmp@plt>
  403c1c:	85 c0                	test   %eax,%eax
  403c1e:	0f 84 8a 02 00 00    	je     403eae <read_config+0x3ae>
	    else if ( strcasecmp( name, "nochroot" ) == 0 )
  403c24:	be db ee 40 00       	mov    $0x40eedb,%esi
  403c29:	4c 89 e7             	mov    %r12,%rdi
  403c2c:	e8 bf e5 ff ff       	callq  4021f0 <strcasecmp@plt>
  403c31:	85 c0                	test   %eax,%eax
  403c33:	0f 84 96 02 00 00    	je     403ecf <read_config+0x3cf>
	    else if ( strcasecmp( name, "data_dir" ) == 0 )
  403c39:	be e4 ee 40 00       	mov    $0x40eee4,%esi
  403c3e:	4c 89 e7             	mov    %r12,%rdi
  403c41:	e8 aa e5 ff ff       	callq  4021f0 <strcasecmp@plt>
  403c46:	85 c0                	test   %eax,%eax
  403c48:	0f 84 a5 02 00 00    	je     403ef3 <read_config+0x3f3>
	    else if ( strcasecmp( name, "symlink" ) == 0 )
  403c4e:	be ef ee 40 00       	mov    $0x40eeef,%esi
  403c53:	4c 89 e7             	mov    %r12,%rdi
  403c56:	e8 95 e5 ff ff       	callq  4021f0 <strcasecmp@plt>
  403c5b:	85 c0                	test   %eax,%eax
  403c5d:	0f 84 af 02 00 00    	je     403f12 <read_config+0x412>
	    else if ( strcasecmp( name, "nosymlink" ) == 0 )
  403c63:	be ed ee 40 00       	mov    $0x40eeed,%esi
  403c68:	4c 89 e7             	mov    %r12,%rdi
  403c6b:	e8 80 e5 ff ff       	callq  4021f0 <strcasecmp@plt>
  403c70:	85 c0                	test   %eax,%eax
  403c72:	0f 84 b4 02 00 00    	je     403f2c <read_config+0x42c>
	    else if ( strcasecmp( name, "symlinks" ) == 0 )
  403c78:	be f9 ee 40 00       	mov    $0x40eef9,%esi
  403c7d:	4c 89 e7             	mov    %r12,%rdi
  403c80:	e8 6b e5 ff ff       	callq  4021f0 <strcasecmp@plt>
  403c85:	85 c0                	test   %eax,%eax
  403c87:	0f 84 85 02 00 00    	je     403f12 <read_config+0x412>
	    else if ( strcasecmp( name, "nosymlinks" ) == 0 )
  403c8d:	be f7 ee 40 00       	mov    $0x40eef7,%esi
  403c92:	4c 89 e7             	mov    %r12,%rdi
  403c95:	e8 56 e5 ff ff       	callq  4021f0 <strcasecmp@plt>
  403c9a:	85 c0                	test   %eax,%eax
  403c9c:	0f 84 8a 02 00 00    	je     403f2c <read_config+0x42c>
	    else if ( strcasecmp( name, "user" ) == 0 )
  403ca2:	be 02 ef 40 00       	mov    $0x40ef02,%esi
  403ca7:	4c 89 e7             	mov    %r12,%rdi
  403caa:	e8 41 e5 ff ff       	callq  4021f0 <strcasecmp@plt>
  403caf:	85 c0                	test   %eax,%eax
  403cb1:	0f 84 8f 02 00 00    	je     403f46 <read_config+0x446>
	    else if ( strcasecmp( name, "cgipat" ) == 0 )
  403cb7:	be 07 ef 40 00       	mov    $0x40ef07,%esi
  403cbc:	4c 89 e7             	mov    %r12,%rdi
  403cbf:	e8 2c e5 ff ff       	callq  4021f0 <strcasecmp@plt>
  403cc4:	85 c0                	test   %eax,%eax
  403cc6:	0f 84 ae 02 00 00    	je     403f7a <read_config+0x47a>
	    else if ( strcasecmp( name, "cgilimit" ) == 0 )
  403ccc:	be 0e ef 40 00       	mov    $0x40ef0e,%esi
  403cd1:	4c 89 e7             	mov    %r12,%rdi
  403cd4:	e8 17 e5 ff ff       	callq  4021f0 <strcasecmp@plt>
  403cd9:	85 c0                	test   %eax,%eax
  403cdb:	0f 84 d7 02 00 00    	je     403fb8 <read_config+0x4b8>
	    else if ( strcasecmp( name, "urlpat" ) == 0 )
  403ce1:	be 17 ef 40 00       	mov    $0x40ef17,%esi
  403ce6:	4c 89 e7             	mov    %r12,%rdi
  403ce9:	e8 02 e5 ff ff       	callq  4021f0 <strcasecmp@plt>
  403cee:	85 c0                	test   %eax,%eax
  403cf0:	0f 84 a3 02 00 00    	je     403f99 <read_config+0x499>
	    else if ( strcasecmp( name, "noemptyreferers" ) == 0 )
  403cf6:	be 1e ef 40 00       	mov    $0x40ef1e,%esi
  403cfb:	4c 89 e7             	mov    %r12,%rdi
  403cfe:	e8 ed e4 ff ff       	callq  4021f0 <strcasecmp@plt>
  403d03:	85 c0                	test   %eax,%eax
  403d05:	0f 84 ea 02 00 00    	je     403ff5 <read_config+0x4f5>
	    else if ( strcasecmp( name, "localpat" ) == 0 )
  403d0b:	be 2e ef 40 00       	mov    $0x40ef2e,%esi
  403d10:	4c 89 e7             	mov    %r12,%rdi
  403d13:	e8 d8 e4 ff ff       	callq  4021f0 <strcasecmp@plt>
  403d18:	85 c0                	test   %eax,%eax
  403d1a:	0f 84 b6 02 00 00    	je     403fd6 <read_config+0x4d6>
	    else if ( strcasecmp( name, "throttles" ) == 0 )
  403d20:	be 37 ef 40 00       	mov    $0x40ef37,%esi
  403d25:	4c 89 e7             	mov    %r12,%rdi
  403d28:	e8 c3 e4 ff ff       	callq  4021f0 <strcasecmp@plt>
  403d2d:	85 c0                	test   %eax,%eax
  403d2f:	0f 84 da 02 00 00    	je     40400f <read_config+0x50f>
	    else if ( strcasecmp( name, "host" ) == 0 )
  403d35:	be 17 f4 40 00       	mov    $0x40f417,%esi
  403d3a:	4c 89 e7             	mov    %r12,%rdi
  403d3d:	e8 ae e4 ff ff       	callq  4021f0 <strcasecmp@plt>
  403d42:	85 c0                	test   %eax,%eax
  403d44:	0f 84 03 03 00 00    	je     40404d <read_config+0x54d>
	    else if ( strcasecmp( name, "logfile" ) == 0 )
  403d4a:	be 20 f0 40 00       	mov    $0x40f020,%esi
  403d4f:	4c 89 e7             	mov    %r12,%rdi
  403d52:	e8 99 e4 ff ff       	callq  4021f0 <strcasecmp@plt>
  403d57:	85 c0                	test   %eax,%eax
  403d59:	0f 84 cf 02 00 00    	je     40402e <read_config+0x52e>
	    else if ( strcasecmp( name, "vhost" ) == 0 )
  403d5f:	be 43 ef 40 00       	mov    $0x40ef43,%esi
  403d64:	4c 89 e7             	mov    %r12,%rdi
  403d67:	e8 84 e4 ff ff       	callq  4021f0 <strcasecmp@plt>
  403d6c:	85 c0                	test   %eax,%eax
  403d6e:	0f 84 e5 03 00 00    	je     404159 <read_config+0x659>
	    else if ( strcasecmp( name, "novhost" ) == 0 )
  403d74:	be 41 ef 40 00       	mov    $0x40ef41,%esi
  403d79:	4c 89 e7             	mov    %r12,%rdi
  403d7c:	e8 6f e4 ff ff       	callq  4021f0 <strcasecmp@plt>
  403d81:	85 c0                	test   %eax,%eax
  403d83:	0f 84 b6 03 00 00    	je     40413f <read_config+0x63f>
	    else if ( strcasecmp( name, "globalpasswd" ) == 0 )
  403d89:	be 4b ef 40 00       	mov    $0x40ef4b,%esi
  403d8e:	4c 89 e7             	mov    %r12,%rdi
  403d91:	e8 5a e4 ff ff       	callq  4021f0 <strcasecmp@plt>
  403d96:	85 c0                	test   %eax,%eax
  403d98:	0f 84 e2 02 00 00    	je     404080 <read_config+0x580>
	    else if ( strcasecmp( name, "noglobalpasswd" ) == 0 )
  403d9e:	be 49 ef 40 00       	mov    $0x40ef49,%esi
  403da3:	4c 89 e7             	mov    %r12,%rdi
  403da6:	e8 45 e4 ff ff       	callq  4021f0 <strcasecmp@plt>
  403dab:	85 c0                	test   %eax,%eax
  403dad:	0f 84 72 03 00 00    	je     404125 <read_config+0x625>
	    else if ( strcasecmp( name, "pidfile" ) == 0 )
  403db3:	be 58 ef 40 00       	mov    $0x40ef58,%esi
  403db8:	4c 89 e7             	mov    %r12,%rdi
  403dbb:	e8 30 e4 ff ff       	callq  4021f0 <strcasecmp@plt>
  403dc0:	85 c0                	test   %eax,%eax
  403dc2:	0f 84 3e 03 00 00    	je     404106 <read_config+0x606>
	    else if ( strcasecmp( name, "charset" ) == 0 )
  403dc8:	be 60 ef 40 00       	mov    $0x40ef60,%esi
  403dcd:	4c 89 e7             	mov    %r12,%rdi
  403dd0:	e8 1b e4 ff ff       	callq  4021f0 <strcasecmp@plt>
  403dd5:	85 c0                	test   %eax,%eax
  403dd7:	0f 84 0a 03 00 00    	je     4040e7 <read_config+0x5e7>
	    else if ( strcasecmp( name, "p3p" ) == 0 )
  403ddd:	be 68 ef 40 00       	mov    $0x40ef68,%esi
  403de2:	4c 89 e7             	mov    %r12,%rdi
  403de5:	e8 06 e4 ff ff       	callq  4021f0 <strcasecmp@plt>
  403dea:	85 c0                	test   %eax,%eax
  403dec:	0f 84 d6 02 00 00    	je     4040c8 <read_config+0x5c8>
	    else if ( strcasecmp( name, "max_age" ) == 0 )
  403df2:	be 6c ef 40 00       	mov    $0x40ef6c,%esi
  403df7:	4c 89 e7             	mov    %r12,%rdi
  403dfa:	e8 f1 e3 ff ff       	callq  4021f0 <strcasecmp@plt>
  403dff:	85 c0                	test   %eax,%eax
  403e01:	0f 85 93 02 00 00    	jne    40409a <read_config+0x59a>
		value_required( name, value );
  403e07:	4c 89 ee             	mov    %r13,%rsi
  403e0a:	4c 89 e7             	mov    %r12,%rdi
  403e0d:	e8 4e fa ff ff       	callq  403860 <value_required>
		max_age = atoi( value );
  403e12:	4c 89 ef             	mov    %r13,%rdi
  403e15:	e8 96 e9 ff ff       	callq  4027b0 <atoi@plt>
  403e1a:	89 05 40 31 21 00    	mov    %eax,0x213140(%rip)        # 616f60 <max_age>
  403e20:	eb 33                	jmp    403e55 <read_config+0x355>
  403e22:	66 0f 1f 44 00 00    	nopw   0x0(%rax,%rax,1)
	    while ( *cp2 == ' ' || *cp2 == '\t' || *cp2 == '\n' || *cp2 == '\r' )
  403e28:	48 0f a3 d5          	bt     %rdx,%rbp
  403e2c:	0f 82 6e fd ff ff    	jb     403ba0 <read_config+0xa0>
  403e32:	e9 7d fd ff ff       	jmpq   403bb4 <read_config+0xb4>
  403e37:	66 0f 1f 84 00 00 00 	nopw   0x0(%rax,%rax,1)
  403e3e:	00 00 
		no_value_required( name, value );
  403e40:	4c 89 ee             	mov    %r13,%rsi
  403e43:	4c 89 e7             	mov    %r12,%rdi
  403e46:	e8 e5 f9 ff ff       	callq  403830 <no_value_required>
		debug = 1;
  403e4b:	c7 05 9f 31 21 00 01 	movl   $0x1,0x21319f(%rip)        # 616ff4 <debug>
  403e52:	00 00 00 
	    cp += strspn( cp, " \t\n\r" );
  403e55:	be cb ee 40 00       	mov    $0x40eecb,%esi
  403e5a:	48 89 df             	mov    %rbx,%rdi
  403e5d:	e8 2e e6 ff ff       	callq  402490 <strspn@plt>
  403e62:	4c 8d 24 03          	lea    (%rbx,%rax,1),%r12
	while ( *cp != '\0' )
  403e66:	41 80 3c 24 00       	cmpb   $0x0,(%r12)
  403e6b:	0f 85 07 fd ff ff    	jne    403b78 <read_config+0x78>
  403e71:	e9 b9 fc ff ff       	jmpq   403b2f <read_config+0x2f>
		value_required( name, value );
  403e76:	4c 89 ee             	mov    %r13,%rsi
  403e79:	4c 89 e7             	mov    %r12,%rdi
  403e7c:	e8 df f9 ff ff       	callq  403860 <value_required>
		port = (unsigned short) atoi( value );
  403e81:	4c 89 ef             	mov    %r13,%rdi
  403e84:	e8 27 e9 ff ff       	callq  4027b0 <atoi@plt>
  403e89:	66 89 05 60 31 21 00 	mov    %ax,0x213160(%rip)        # 616ff0 <port>
  403e90:	eb c3                	jmp    403e55 <read_config+0x355>
		value_required( name, value );
  403e92:	4c 89 ee             	mov    %r13,%rsi
  403e95:	4c 89 e7             	mov    %r12,%rdi
  403e98:	e8 c3 f9 ff ff       	callq  403860 <value_required>
		dir = e_strdup( value );
  403e9d:	4c 89 ef             	mov    %r13,%rdi
  403ea0:	e8 0b fc ff ff       	callq  403ab0 <e_strdup>
  403ea5:	48 89 05 3c 31 21 00 	mov    %rax,0x21313c(%rip)        # 616fe8 <dir>
  403eac:	eb a7                	jmp    403e55 <read_config+0x355>
		no_value_required( name, value );
  403eae:	4c 89 ee             	mov    %r13,%rsi
  403eb1:	4c 89 e7             	mov    %r12,%rdi
  403eb4:	e8 77 f9 ff ff       	callq  403830 <no_value_required>
		do_chroot = 1;
  403eb9:	c7 05 15 31 21 00 01 	movl   $0x1,0x213115(%rip)        # 616fd8 <do_chroot>
  403ec0:	00 00 00 
		no_symlink_check = 1;
  403ec3:	c7 05 03 31 21 00 01 	movl   $0x1,0x213103(%rip)        # 616fd0 <no_symlink_check>
  403eca:	00 00 00 
  403ecd:	eb 86                	jmp    403e55 <read_config+0x355>
		no_value_required( name, value );
  403ecf:	4c 89 ee             	mov    %r13,%rsi
  403ed2:	4c 89 e7             	mov    %r12,%rdi
  403ed5:	e8 56 f9 ff ff       	callq  403830 <no_value_required>
		do_chroot = 0;
  403eda:	c7 05 f4 30 21 00 00 	movl   $0x0,0x2130f4(%rip)        # 616fd8 <do_chroot>
  403ee1:	00 00 00 
		no_symlink_check = 0;
  403ee4:	c7 05 e2 30 21 00 00 	movl   $0x0,0x2130e2(%rip)        # 616fd0 <no_symlink_check>
  403eeb:	00 00 00 
  403eee:	e9 62 ff ff ff       	jmpq   403e55 <read_config+0x355>
		value_required( name, value );
  403ef3:	4c 89 ee             	mov    %r13,%rsi
  403ef6:	4c 89 e7             	mov    %r12,%rdi
  403ef9:	e8 62 f9 ff ff       	callq  403860 <value_required>
		data_dir = e_strdup( value );
  403efe:	4c 89 ef             	mov    %r13,%rdi
  403f01:	e8 aa fb ff ff       	callq  403ab0 <e_strdup>
  403f06:	48 89 05 d3 30 21 00 	mov    %rax,0x2130d3(%rip)        # 616fe0 <data_dir>
  403f0d:	e9 43 ff ff ff       	jmpq   403e55 <read_config+0x355>
		no_value_required( name, value );
  403f12:	4c 89 ee             	mov    %r13,%rsi
  403f15:	4c 89 e7             	mov    %r12,%rdi
  403f18:	e8 13 f9 ff ff       	callq  403830 <no_value_required>
		no_symlink_check = 0;
  403f1d:	c7 05 a9 30 21 00 00 	movl   $0x0,0x2130a9(%rip)        # 616fd0 <no_symlink_check>
  403f24:	00 00 00 
  403f27:	e9 29 ff ff ff       	jmpq   403e55 <read_config+0x355>
		no_value_required( name, value );
  403f2c:	4c 89 ee             	mov    %r13,%rsi
  403f2f:	4c 89 e7             	mov    %r12,%rdi
  403f32:	e8 f9 f8 ff ff       	callq  403830 <no_value_required>
		no_symlink_check = 1;
  403f37:	c7 05 8f 30 21 00 01 	movl   $0x1,0x21308f(%rip)        # 616fd0 <no_symlink_check>
  403f3e:	00 00 00 
  403f41:	e9 0f ff ff ff       	jmpq   403e55 <read_config+0x355>
		value_required( name, value );
  403f46:	4c 89 ee             	mov    %r13,%rsi
  403f49:	4c 89 e7             	mov    %r12,%rdi
  403f4c:	e8 0f f9 ff ff       	callq  403860 <value_required>
		user = e_strdup( value );
  403f51:	4c 89 ef             	mov    %r13,%rdi
  403f54:	e8 57 fb ff ff       	callq  403ab0 <e_strdup>
  403f59:	48 89 05 18 30 21 00 	mov    %rax,0x213018(%rip)        # 616f78 <user>
  403f60:	e9 f0 fe ff ff       	jmpq   403e55 <read_config+0x355>
    (void) fclose( fp );
  403f65:	4c 89 f7             	mov    %r14,%rdi
  403f68:	e8 b3 e3 ff ff       	callq  402320 <fclose@plt>
    }
  403f6d:	48 83 c4 70          	add    $0x70,%rsp
  403f71:	5b                   	pop    %rbx
  403f72:	5d                   	pop    %rbp
  403f73:	41 5c                	pop    %r12
  403f75:	41 5d                	pop    %r13
  403f77:	41 5e                	pop    %r14
  403f79:	c3                   	retq   
		value_required( name, value );
  403f7a:	4c 89 ee             	mov    %r13,%rsi
  403f7d:	4c 89 e7             	mov    %r12,%rdi
  403f80:	e8 db f8 ff ff       	callq  403860 <value_required>
		cgi_pattern = e_strdup( value );
  403f85:	4c 89 ef             	mov    %r13,%rdi
  403f88:	e8 23 fb ff ff       	callq  403ab0 <e_strdup>
  403f8d:	48 89 05 2c 30 21 00 	mov    %rax,0x21302c(%rip)        # 616fc0 <cgi_pattern>
  403f94:	e9 bc fe ff ff       	jmpq   403e55 <read_config+0x355>
		value_required( name, value );
  403f99:	4c 89 ee             	mov    %r13,%rsi
  403f9c:	4c 89 e7             	mov    %r12,%rdi
  403f9f:	e8 bc f8 ff ff       	callq  403860 <value_required>
		url_pattern = e_strdup( value );
  403fa4:	4c 89 ef             	mov    %r13,%rdi
  403fa7:	e8 04 fb ff ff       	callq  403ab0 <e_strdup>
  403fac:	48 89 05 fd 2f 21 00 	mov    %rax,0x212ffd(%rip)        # 616fb0 <url_pattern>
  403fb3:	e9 9d fe ff ff       	jmpq   403e55 <read_config+0x355>
		value_required( name, value );
  403fb8:	4c 89 ee             	mov    %r13,%rsi
  403fbb:	4c 89 e7             	mov    %r12,%rdi
  403fbe:	e8 9d f8 ff ff       	callq  403860 <value_required>
		cgi_limit = atoi( value );
  403fc3:	4c 89 ef             	mov    %r13,%rdi
  403fc6:	e8 e5 e7 ff ff       	callq  4027b0 <atoi@plt>
  403fcb:	89 05 e7 2f 21 00    	mov    %eax,0x212fe7(%rip)        # 616fb8 <cgi_limit>
  403fd1:	e9 7f fe ff ff       	jmpq   403e55 <read_config+0x355>
		value_required( name, value );
  403fd6:	4c 89 ee             	mov    %r13,%rsi
  403fd9:	4c 89 e7             	mov    %r12,%rdi
  403fdc:	e8 7f f8 ff ff       	callq  403860 <value_required>
		local_pattern = e_strdup( value );
  403fe1:	4c 89 ef             	mov    %r13,%rdi
  403fe4:	e8 c7 fa ff ff       	callq  403ab0 <e_strdup>
  403fe9:	48 89 05 b0 2f 21 00 	mov    %rax,0x212fb0(%rip)        # 616fa0 <local_pattern>
  403ff0:	e9 60 fe ff ff       	jmpq   403e55 <read_config+0x355>
		no_value_required( name, value );
  403ff5:	4c 89 ee             	mov    %r13,%rsi
  403ff8:	4c 89 e7             	mov    %r12,%rdi
  403ffb:	e8 30 f8 ff ff       	callq  403830 <no_value_required>
		no_empty_referers = 1;
  404000:	c7 05 9e 2f 21 00 01 	movl   $0x1,0x212f9e(%rip)        # 616fa8 <no_empty_referers>
  404007:	00 00 00 
  40400a:	e9 46 fe ff ff       	jmpq   403e55 <read_config+0x355>
		value_required( name, value );
  40400f:	4c 89 ee             	mov    %r13,%rsi
  404012:	4c 89 e7             	mov    %r12,%rdi
  404015:	e8 46 f8 ff ff       	callq  403860 <value_required>
		throttlefile = e_strdup( value );
  40401a:	4c 89 ef             	mov    %r13,%rdi
  40401d:	e8 8e fa ff ff       	callq  403ab0 <e_strdup>
  404022:	48 89 05 67 2f 21 00 	mov    %rax,0x212f67(%rip)        # 616f90 <throttlefile>
  404029:	e9 27 fe ff ff       	jmpq   403e55 <read_config+0x355>
		value_required( name, value );
  40402e:	4c 89 ee             	mov    %r13,%rsi
  404031:	4c 89 e7             	mov    %r12,%rdi
  404034:	e8 27 f8 ff ff       	callq  403860 <value_required>
		logfile = e_strdup( value );
  404039:	4c 89 ef             	mov    %r13,%rdi
  40403c:	e8 6f fa ff ff       	callq  403ab0 <e_strdup>
  404041:	48 89 05 50 2f 21 00 	mov    %rax,0x212f50(%rip)        # 616f98 <logfile>
  404048:	e9 08 fe ff ff       	jmpq   403e55 <read_config+0x355>
		value_required( name, value );
  40404d:	4c 89 ee             	mov    %r13,%rsi
  404050:	4c 89 e7             	mov    %r12,%rdi
  404053:	e8 08 f8 ff ff       	callq  403860 <value_required>
		hostname = e_strdup( value );
  404058:	4c 89 ef             	mov    %r13,%rdi
  40405b:	e8 50 fa ff ff       	callq  403ab0 <e_strdup>
  404060:	48 89 05 21 2f 21 00 	mov    %rax,0x212f21(%rip)        # 616f88 <hostname>
  404067:	e9 e9 fd ff ff       	jmpq   403e55 <read_config+0x355>
	perror( filename );
  40406c:	48 89 df             	mov    %rbx,%rdi
  40406f:	e8 fc e6 ff ff       	callq  402770 <perror@plt>
	exit( 1 );
  404074:	bf 01 00 00 00       	mov    $0x1,%edi
  404079:	e8 82 e7 ff ff       	callq  402800 <exit@plt>
  40407e:	66 90                	xchg   %ax,%ax
		no_value_required( name, value );
  404080:	4c 89 ee             	mov    %r13,%rsi
  404083:	4c 89 e7             	mov    %r12,%rdi
  404086:	e8 a5 f7 ff ff       	callq  403830 <no_value_required>
		do_global_passwd = 1;
  40408b:	c7 05 33 2f 21 00 01 	movl   $0x1,0x212f33(%rip)        # 616fc8 <do_global_passwd>
  404092:	00 00 00 
  404095:	e9 bb fd ff ff       	jmpq   403e55 <read_config+0x355>
		(void) fprintf(
  40409a:	48 8b 3d 6f 2e 21 00 	mov    0x212e6f(%rip),%rdi        # 616f10 <stderr@@GLIBC_2.2.5>
  4040a1:	4c 89 e1             	mov    %r12,%rcx
  4040a4:	be 40 ea 40 00       	mov    $0x40ea40,%esi
  4040a9:	31 c0                	xor    %eax,%eax
  4040ab:	48 8b 15 46 2f 21 00 	mov    0x212f46(%rip),%rdx        # 616ff8 <argv0>
  4040b2:	e8 79 e4 ff ff       	callq  402530 <fprintf@plt>
		exit( 1 );
  4040b7:	bf 01 00 00 00       	mov    $0x1,%edi
  4040bc:	e8 3f e7 ff ff       	callq  402800 <exit@plt>
  4040c1:	0f 1f 80 00 00 00 00 	nopl   0x0(%rax)
		value_required( name, value );
  4040c8:	4c 89 ee             	mov    %r13,%rsi
  4040cb:	4c 89 e7             	mov    %r12,%rdi
  4040ce:	e8 8d f7 ff ff       	callq  403860 <value_required>
		p3p = e_strdup( value );
  4040d3:	4c 89 ef             	mov    %r13,%rdi
  4040d6:	e8 d5 f9 ff ff       	callq  403ab0 <e_strdup>
  4040db:	48 89 05 86 2e 21 00 	mov    %rax,0x212e86(%rip)        # 616f68 <p3p>
  4040e2:	e9 6e fd ff ff       	jmpq   403e55 <read_config+0x355>
		value_required( name, value );
  4040e7:	4c 89 ee             	mov    %r13,%rsi
  4040ea:	4c 89 e7             	mov    %r12,%rdi
  4040ed:	e8 6e f7 ff ff       	callq  403860 <value_required>
		charset = e_strdup( value );
  4040f2:	4c 89 ef             	mov    %r13,%rdi
  4040f5:	e8 b6 f9 ff ff       	callq  403ab0 <e_strdup>
  4040fa:	48 89 05 6f 2e 21 00 	mov    %rax,0x212e6f(%rip)        # 616f70 <charset>
  404101:	e9 4f fd ff ff       	jmpq   403e55 <read_config+0x355>
		value_required( name, value );
  404106:	4c 89 ee             	mov    %r13,%rsi
  404109:	4c 89 e7             	mov    %r12,%rdi
  40410c:	e8 4f f7 ff ff       	callq  403860 <value_required>
		pidfile = e_strdup( value );
  404111:	4c 89 ef             	mov    %r13,%rdi
  404114:	e8 97 f9 ff ff       	callq  403ab0 <e_strdup>
  404119:	48 89 05 60 2e 21 00 	mov    %rax,0x212e60(%rip)        # 616f80 <pidfile>
  404120:	e9 30 fd ff ff       	jmpq   403e55 <read_config+0x355>
		no_value_required( name, value );
  404125:	4c 89 ee             	mov    %r13,%rsi
  404128:	4c 89 e7             	mov    %r12,%rdi
  40412b:	e8 00 f7 ff ff       	callq  403830 <no_value_required>
		do_global_passwd = 0;
  404130:	c7 05 8e 2e 21 00 00 	movl   $0x0,0x212e8e(%rip)        # 616fc8 <do_global_passwd>
  404137:	00 00 00 
  40413a:	e9 16 fd ff ff       	jmpq   403e55 <read_config+0x355>
		no_value_required( name, value );
  40413f:	4c 89 ee             	mov    %r13,%rsi
  404142:	4c 89 e7             	mov    %r12,%rdi
  404145:	e8 e6 f6 ff ff       	callq  403830 <no_value_required>
		do_vhost = 0;
  40414a:	c7 05 78 2e 21 00 00 	movl   $0x0,0x212e78(%rip)        # 616fcc <do_vhost>
  404151:	00 00 00 
  404154:	e9 fc fc ff ff       	jmpq   403e55 <read_config+0x355>
		no_value_required( name, value );
  404159:	4c 89 ee             	mov    %r13,%rsi
  40415c:	4c 89 e7             	mov    %r12,%rdi
  40415f:	e8 cc f6 ff ff       	callq  403830 <no_value_required>
		do_vhost = 1;
  404164:	c7 05 5e 2e 21 00 01 	movl   $0x1,0x212e5e(%rip)        # 616fcc <do_vhost>
  40416b:	00 00 00 
  40416e:	e9 e2 fc ff ff       	jmpq   403e55 <read_config+0x355>
  404173:	0f 1f 00             	nopl   (%rax)
  404176:	66 2e 0f 1f 84 00 00 	nopw   %cs:0x0(%rax,%rax,1)
  40417d:	00 00 00 

0000000000404180 <parse_args>:
    {
  404180:	41 57                	push   %r15
    port = DEFAULT_PORT;
  404182:	b8 50 00 00 00       	mov    $0x50,%eax
    {
  404187:	41 56                	push   %r14
  404189:	41 55                	push   %r13
  40418b:	41 89 fd             	mov    %edi,%r13d
  40418e:	41 54                	push   %r12
  404190:	55                   	push   %rbp
  404191:	53                   	push   %rbx
  404192:	48 83 ec 08          	sub    $0x8,%rsp
    port = DEFAULT_PORT;
  404196:	66 89 05 53 2e 21 00 	mov    %ax,0x212e53(%rip)        # 616ff0 <port>
    debug = 0;
  40419d:	c7 05 4d 2e 21 00 00 	movl   $0x0,0x212e4d(%rip)        # 616ff4 <debug>
  4041a4:	00 00 00 
    dir = (char*) 0;
  4041a7:	48 c7 05 36 2e 21 00 	movq   $0x0,0x212e36(%rip)        # 616fe8 <dir>
  4041ae:	00 00 00 00 
    data_dir = (char*) 0;
  4041b2:	48 c7 05 23 2e 21 00 	movq   $0x0,0x212e23(%rip)        # 616fe0 <data_dir>
  4041b9:	00 00 00 00 
    do_chroot = 0;
  4041bd:	c7 05 11 2e 21 00 00 	movl   $0x0,0x212e11(%rip)        # 616fd8 <do_chroot>
  4041c4:	00 00 00 
    no_log = 0;
  4041c7:	c7 05 03 2e 21 00 00 	movl   $0x0,0x212e03(%rip)        # 616fd4 <no_log>
  4041ce:	00 00 00 
    no_symlink_check = do_chroot;
  4041d1:	c7 05 f5 2d 21 00 00 	movl   $0x0,0x212df5(%rip)        # 616fd0 <no_symlink_check>
  4041d8:	00 00 00 
    do_vhost = 0;
  4041db:	c7 05 e7 2d 21 00 00 	movl   $0x0,0x212de7(%rip)        # 616fcc <do_vhost>
  4041e2:	00 00 00 
    do_global_passwd = 0;
  4041e5:	c7 05 d9 2d 21 00 00 	movl   $0x0,0x212dd9(%rip)        # 616fc8 <do_global_passwd>
  4041ec:	00 00 00 
    cgi_pattern = (char*) 0;
  4041ef:	48 c7 05 c6 2d 21 00 	movq   $0x0,0x212dc6(%rip)        # 616fc0 <cgi_pattern>
  4041f6:	00 00 00 00 
    cgi_limit = 0;
  4041fa:	c7 05 b4 2d 21 00 00 	movl   $0x0,0x212db4(%rip)        # 616fb8 <cgi_limit>
  404201:	00 00 00 
    url_pattern = (char*) 0;
  404204:	48 c7 05 a1 2d 21 00 	movq   $0x0,0x212da1(%rip)        # 616fb0 <url_pattern>
  40420b:	00 00 00 00 
    no_empty_referers = 0;
  40420f:	c7 05 8f 2d 21 00 00 	movl   $0x0,0x212d8f(%rip)        # 616fa8 <no_empty_referers>
  404216:	00 00 00 
    local_pattern = (char*) 0;
  404219:	48 c7 05 7c 2d 21 00 	movq   $0x0,0x212d7c(%rip)        # 616fa0 <local_pattern>
  404220:	00 00 00 00 
    throttlefile = (char*) 0;
  404224:	48 c7 05 61 2d 21 00 	movq   $0x0,0x212d61(%rip)        # 616f90 <throttlefile>
  40422b:	00 00 00 00 
    hostname = (char*) 0;
  40422f:	48 c7 05 4e 2d 21 00 	movq   $0x0,0x212d4e(%rip)        # 616f88 <hostname>
  404236:	00 00 00 00 
    logfile = (char*) 0;
  40423a:	48 c7 05 53 2d 21 00 	movq   $0x0,0x212d53(%rip)        # 616f98 <logfile>
  404241:	00 00 00 00 
    pidfile = (char*) 0;
  404245:	48 c7 05 30 2d 21 00 	movq   $0x0,0x212d30(%rip)        # 616f80 <pidfile>
  40424c:	00 00 00 00 
    user = DEFAULT_USER;
  404250:	48 c7 05 1d 2d 21 00 	movq   $0x40ef74,0x212d1d(%rip)        # 616f78 <user>
  404257:	74 ef 40 00 
    charset = DEFAULT_CHARSET;
  40425b:	48 c7 05 0a 2d 21 00 	movq   $0x40ef7b,0x212d0a(%rip)        # 616f70 <charset>
  404262:	7b ef 40 00 
    p3p = "";
  404266:	48 c7 05 f7 2c 21 00 	movq   $0x40f609,0x212cf7(%rip)        # 616f68 <p3p>
  40426d:	09 f6 40 00 
    max_age = -1;
  404271:	c7 05 e5 2c 21 00 ff 	movl   $0xffffffff,0x212ce5(%rip)        # 616f60 <max_age>
  404278:	ff ff ff 
    while ( argn < argc && argv[argn][0] == '-' )
  40427b:	83 ff 01             	cmp    $0x1,%edi
  40427e:	0f 8e 9c 03 00 00    	jle    404620 <parse_args+0x4a0>
  404284:	48 8b 5e 08          	mov    0x8(%rsi),%rbx
  404288:	49 89 f6             	mov    %rsi,%r14
    argn = 1;
  40428b:	bd 01 00 00 00       	mov    $0x1,%ebp
  404290:	41 bc 86 ef 40 00    	mov    $0x40ef86,%r12d
    while ( argn < argc && argv[argn][0] == '-' )
  404296:	80 3b 2d             	cmpb   $0x2d,(%rbx)
  404299:	0f 84 8d 00 00 00    	je     40432c <parse_args+0x1ac>
  40429f:	e9 b5 04 00 00       	jmpq   404759 <parse_args+0x5d9>
  4042a4:	0f 1f 40 00          	nopl   0x0(%rax)
	else if ( strcmp( argv[argn], "-C" ) == 0 && argn + 1 < argc )
  4042a8:	44 8d 7d 01          	lea    0x1(%rbp),%r15d
  4042ac:	45 39 ef             	cmp    %r13d,%r15d
  4042af:	0f 8c 8b 01 00 00    	jl     404440 <parse_args+0x2c0>
	else if ( strcmp( argv[argn], "-p" ) == 0 && argn + 1 < argc )
  4042b5:	bf a6 ef 40 00       	mov    $0x40efa6,%edi
  4042ba:	b9 03 00 00 00       	mov    $0x3,%ecx
  4042bf:	48 89 de             	mov    %rbx,%rsi
  4042c2:	f3 a6                	repz cmpsb %es:(%rdi),%ds:(%rsi)
  4042c4:	0f 97 c0             	seta   %al
  4042c7:	1c 00                	sbb    $0x0,%al
  4042c9:	84 c0                	test   %al,%al
  4042cb:	0f 84 ff 00 00 00    	je     4043d0 <parse_args+0x250>
	else if ( strcmp( argv[argn], "-d" ) == 0 && argn + 1 < argc )
  4042d1:	bf a9 ef 40 00       	mov    $0x40efa9,%edi
  4042d6:	b9 03 00 00 00       	mov    $0x3,%ecx
  4042db:	48 89 de             	mov    %rbx,%rsi
  4042de:	f3 a6                	repz cmpsb %es:(%rdi),%ds:(%rsi)
  4042e0:	0f 97 c0             	seta   %al
  4042e3:	1c 00                	sbb    $0x0,%al
  4042e5:	84 c0                	test   %al,%al
  4042e7:	0f 85 e3 00 00 00    	jne    4043d0 <parse_args+0x250>
  4042ed:	8d 45 01             	lea    0x1(%rbp),%eax
  4042f0:	44 39 e8             	cmp    %r13d,%eax
  4042f3:	0f 8d d7 00 00 00    	jge    4043d0 <parse_args+0x250>
	    dir = argv[argn];
  4042f9:	48 63 d0             	movslq %eax,%rdx
  4042fc:	89 c5                	mov    %eax,%ebp
  4042fe:	49 8b 14 d6          	mov    (%r14,%rdx,8),%rdx
  404302:	48 89 15 df 2c 21 00 	mov    %rdx,0x212cdf(%rip)        # 616fe8 <dir>
  404309:	0f 1f 80 00 00 00 00 	nopl   0x0(%rax)
	++argn;
  404310:	83 c5 01             	add    $0x1,%ebp
    while ( argn < argc && argv[argn][0] == '-' )
  404313:	41 39 ed             	cmp    %ebp,%r13d
  404316:	0f 8e 94 00 00 00    	jle    4043b0 <parse_args+0x230>
  40431c:	48 63 c5             	movslq %ebp,%rax
  40431f:	49 8b 1c c6          	mov    (%r14,%rax,8),%rbx
  404323:	80 3b 2d             	cmpb   $0x2d,(%rbx)
  404326:	0f 85 2d 04 00 00    	jne    404759 <parse_args+0x5d9>
	if ( strcmp( argv[argn], "-V" ) == 0 )
  40432c:	b9 03 00 00 00       	mov    $0x3,%ecx
  404331:	48 89 de             	mov    %rbx,%rsi
  404334:	4c 89 e7             	mov    %r12,%rdi
  404337:	f3 a6                	repz cmpsb %es:(%rdi),%ds:(%rsi)
  404339:	0f 97 c0             	seta   %al
  40433c:	1c 00                	sbb    $0x0,%al
  40433e:	84 c0                	test   %al,%al
  404340:	0f 84 bc 01 00 00    	je     404502 <parse_args+0x382>
	else if ( strcmp( argv[argn], "-C" ) == 0 && argn + 1 < argc )
  404346:	bf a3 ef 40 00       	mov    $0x40efa3,%edi
  40434b:	b9 03 00 00 00       	mov    $0x3,%ecx
  404350:	48 89 de             	mov    %rbx,%rsi
  404353:	f3 a6                	repz cmpsb %es:(%rdi),%ds:(%rsi)
  404355:	0f 97 c0             	seta   %al
  404358:	1c 00                	sbb    $0x0,%al
  40435a:	84 c0                	test   %al,%al
  40435c:	0f 84 46 ff ff ff    	je     4042a8 <parse_args+0x128>
	else if ( strcmp( argv[argn], "-p" ) == 0 && argn + 1 < argc )
  404362:	bf a6 ef 40 00       	mov    $0x40efa6,%edi
  404367:	b9 03 00 00 00       	mov    $0x3,%ecx
  40436c:	48 89 de             	mov    %rbx,%rsi
  40436f:	f3 a6                	repz cmpsb %es:(%rdi),%ds:(%rsi)
  404371:	0f 97 c0             	seta   %al
  404374:	1c 00                	sbb    $0x0,%al
  404376:	84 c0                	test   %al,%al
  404378:	0f 85 53 ff ff ff    	jne    4042d1 <parse_args+0x151>
  40437e:	44 8d 7d 01          	lea    0x1(%rbp),%r15d
  404382:	45 39 ef             	cmp    %r13d,%r15d
  404385:	7d 49                	jge    4043d0 <parse_args+0x250>
	    port = (unsigned short) atoi( argv[argn] );
  404387:	49 63 c7             	movslq %r15d,%rax
  40438a:	44 89 fd             	mov    %r15d,%ebp
  40438d:	49 8b 3c c6          	mov    (%r14,%rax,8),%rdi
	++argn;
  404391:	83 c5 01             	add    $0x1,%ebp
	    port = (unsigned short) atoi( argv[argn] );
  404394:	e8 17 e4 ff ff       	callq  4027b0 <atoi@plt>
  404399:	66 89 05 50 2c 21 00 	mov    %ax,0x212c50(%rip)        # 616ff0 <port>
    while ( argn < argc && argv[argn][0] == '-' )
  4043a0:	41 39 ed             	cmp    %ebp,%r13d
  4043a3:	0f 8f 73 ff ff ff    	jg     40431c <parse_args+0x19c>
  4043a9:	0f 1f 80 00 00 00 00 	nopl   0x0(%rax)
    if ( argn != argc )
  4043b0:	41 39 ed             	cmp    %ebp,%r13d
  4043b3:	0f 85 a0 03 00 00    	jne    404759 <parse_args+0x5d9>
    }
  4043b9:	48 83 c4 08          	add    $0x8,%rsp
  4043bd:	5b                   	pop    %rbx
  4043be:	5d                   	pop    %rbp
  4043bf:	41 5c                	pop    %r12
  4043c1:	41 5d                	pop    %r13
  4043c3:	41 5e                	pop    %r14
  4043c5:	41 5f                	pop    %r15
  4043c7:	c3                   	retq   
  4043c8:	0f 1f 84 00 00 00 00 	nopl   0x0(%rax,%rax,1)
  4043cf:	00 
	else if ( strcmp( argv[argn], "-r" ) == 0 )
  4043d0:	bf ac ef 40 00       	mov    $0x40efac,%edi
  4043d5:	b9 03 00 00 00       	mov    $0x3,%ecx
  4043da:	48 89 de             	mov    %rbx,%rsi
  4043dd:	f3 a6                	repz cmpsb %es:(%rdi),%ds:(%rsi)
  4043df:	0f 97 c0             	seta   %al
  4043e2:	1c 00                	sbb    $0x0,%al
  4043e4:	84 c0                	test   %al,%al
  4043e6:	75 20                	jne    404408 <parse_args+0x288>
	    do_chroot = 1;
  4043e8:	c7 05 e6 2b 21 00 01 	movl   $0x1,0x212be6(%rip)        # 616fd8 <do_chroot>
  4043ef:	00 00 00 
	    no_symlink_check = 1;
  4043f2:	c7 05 d4 2b 21 00 01 	movl   $0x1,0x212bd4(%rip)        # 616fd0 <no_symlink_check>
  4043f9:	00 00 00 
  4043fc:	e9 0f ff ff ff       	jmpq   404310 <parse_args+0x190>
  404401:	0f 1f 80 00 00 00 00 	nopl   0x0(%rax)
	else if ( strcmp( argv[argn], "-nor" ) == 0 )
  404408:	bf af ef 40 00       	mov    $0x40efaf,%edi
  40440d:	b9 05 00 00 00       	mov    $0x5,%ecx
  404412:	48 89 de             	mov    %rbx,%rsi
  404415:	f3 a6                	repz cmpsb %es:(%rdi),%ds:(%rsi)
  404417:	0f 97 c0             	seta   %al
  40441a:	1c 00                	sbb    $0x0,%al
  40441c:	84 c0                	test   %al,%al
  40441e:	75 38                	jne    404458 <parse_args+0x2d8>
	    do_chroot = 0;
  404420:	c7 05 ae 2b 21 00 00 	movl   $0x0,0x212bae(%rip)        # 616fd8 <do_chroot>
  404427:	00 00 00 
	    no_symlink_check = 0;
  40442a:	c7 05 9c 2b 21 00 00 	movl   $0x0,0x212b9c(%rip)        # 616fd0 <no_symlink_check>
  404431:	00 00 00 
  404434:	e9 d7 fe ff ff       	jmpq   404310 <parse_args+0x190>
  404439:	0f 1f 80 00 00 00 00 	nopl   0x0(%rax)
	    read_config( argv[argn] );
  404440:	49 63 c7             	movslq %r15d,%rax
  404443:	44 89 fd             	mov    %r15d,%ebp
  404446:	49 8b 3c c6          	mov    (%r14,%rax,8),%rdi
  40444a:	e8 b1 f6 ff ff       	callq  403b00 <read_config>
  40444f:	e9 bc fe ff ff       	jmpq   404310 <parse_args+0x190>
  404454:	0f 1f 40 00          	nopl   0x0(%rax)
	else if ( strcmp( argv[argn], "-dd" ) == 0 && argn + 1 < argc )
  404458:	bf b4 ef 40 00       	mov    $0x40efb4,%edi
  40445d:	b9 04 00 00 00       	mov    $0x4,%ecx
  404462:	48 89 de             	mov    %rbx,%rsi
  404465:	f3 a6                	repz cmpsb %es:(%rdi),%ds:(%rsi)
  404467:	0f 97 c0             	seta   %al
  40446a:	1c 00                	sbb    $0x0,%al
  40446c:	84 c0                	test   %al,%al
  40446e:	75 08                	jne    404478 <parse_args+0x2f8>
  404470:	8d 45 01             	lea    0x1(%rbp),%eax
  404473:	44 39 e8             	cmp    %r13d,%eax
  404476:	7c 47                	jl     4044bf <parse_args+0x33f>
	else if ( strcmp( argv[argn], "-s" ) == 0 )
  404478:	bf b8 ef 40 00       	mov    $0x40efb8,%edi
  40447d:	b9 03 00 00 00       	mov    $0x3,%ecx
  404482:	48 89 de             	mov    %rbx,%rsi
  404485:	f3 a6                	repz cmpsb %es:(%rdi),%ds:(%rsi)
  404487:	0f 97 c0             	seta   %al
  40448a:	1c 00                	sbb    $0x0,%al
  40448c:	84 c0                	test   %al,%al
  40448e:	75 0f                	jne    40449f <parse_args+0x31f>
	    no_symlink_check = 0;
  404490:	c7 05 36 2b 21 00 00 	movl   $0x0,0x212b36(%rip)        # 616fd0 <no_symlink_check>
  404497:	00 00 00 
  40449a:	e9 71 fe ff ff       	jmpq   404310 <parse_args+0x190>
	else if ( strcmp( argv[argn], "-nos" ) == 0 )
  40449f:	be bb ef 40 00       	mov    $0x40efbb,%esi
  4044a4:	48 89 df             	mov    %rbx,%rdi
  4044a7:	e8 64 e0 ff ff       	callq  402510 <strcmp@plt>
  4044ac:	85 c0                	test   %eax,%eax
  4044ae:	75 24                	jne    4044d4 <parse_args+0x354>
	    no_symlink_check = 1;
  4044b0:	c7 05 16 2b 21 00 01 	movl   $0x1,0x212b16(%rip)        # 616fd0 <no_symlink_check>
  4044b7:	00 00 00 
  4044ba:	e9 51 fe ff ff       	jmpq   404310 <parse_args+0x190>
	    data_dir = argv[argn];
  4044bf:	48 63 d0             	movslq %eax,%rdx
  4044c2:	89 c5                	mov    %eax,%ebp
  4044c4:	49 8b 14 d6          	mov    (%r14,%rdx,8),%rdx
  4044c8:	48 89 15 11 2b 21 00 	mov    %rdx,0x212b11(%rip)        # 616fe0 <data_dir>
  4044cf:	e9 3c fe ff ff       	jmpq   404310 <parse_args+0x190>
	else if ( strcmp( argv[argn], "-u" ) == 0 && argn + 1 < argc )
  4044d4:	be c0 ef 40 00       	mov    $0x40efc0,%esi
  4044d9:	48 89 df             	mov    %rbx,%rdi
  4044dc:	e8 2f e0 ff ff       	callq  402510 <strcmp@plt>
  4044e1:	85 c0                	test   %eax,%eax
  4044e3:	75 2e                	jne    404513 <parse_args+0x393>
  4044e5:	8d 45 01             	lea    0x1(%rbp),%eax
  4044e8:	44 39 e8             	cmp    %r13d,%eax
  4044eb:	7d 26                	jge    404513 <parse_args+0x393>
	    user = argv[argn];
  4044ed:	48 63 d0             	movslq %eax,%rdx
  4044f0:	89 c5                	mov    %eax,%ebp
  4044f2:	49 8b 14 d6          	mov    (%r14,%rdx,8),%rdx
  4044f6:	48 89 15 7b 2a 21 00 	mov    %rdx,0x212a7b(%rip)        # 616f78 <user>
  4044fd:	e9 0e fe ff ff       	jmpq   404310 <parse_args+0x190>
	    (void) printf( "%s\n", SERVER_SOFTWARE );
  404502:	bf 89 ef 40 00       	mov    $0x40ef89,%edi
  404507:	e8 84 dd ff ff       	callq  402290 <puts@plt>
	    exit( 0 );
  40450c:	31 ff                	xor    %edi,%edi
  40450e:	e8 ed e2 ff ff       	callq  402800 <exit@plt>
	else if ( strcmp( argv[argn], "-c" ) == 0 && argn + 1 < argc )
  404513:	be c3 ef 40 00       	mov    $0x40efc3,%esi
  404518:	48 89 df             	mov    %rbx,%rdi
  40451b:	e8 f0 df ff ff       	callq  402510 <strcmp@plt>
  404520:	85 c0                	test   %eax,%eax
  404522:	75 0c                	jne    404530 <parse_args+0x3b0>
  404524:	8d 45 01             	lea    0x1(%rbp),%eax
  404527:	44 39 e8             	cmp    %r13d,%eax
  40452a:	0f 8c cc 00 00 00    	jl     4045fc <parse_args+0x47c>
	else if ( strcmp( argv[argn], "-t" ) == 0 && argn + 1 < argc )
  404530:	be c6 ef 40 00       	mov    $0x40efc6,%esi
  404535:	48 89 df             	mov    %rbx,%rdi
  404538:	e8 d3 df ff ff       	callq  402510 <strcmp@plt>
  40453d:	85 c0                	test   %eax,%eax
  40453f:	75 1d                	jne    40455e <parse_args+0x3de>
  404541:	8d 45 01             	lea    0x1(%rbp),%eax
  404544:	44 39 e8             	cmp    %r13d,%eax
  404547:	7d 43                	jge    40458c <parse_args+0x40c>
	    throttlefile = argv[argn];
  404549:	48 63 d0             	movslq %eax,%rdx
  40454c:	89 c5                	mov    %eax,%ebp
  40454e:	49 8b 14 d6          	mov    (%r14,%rdx,8),%rdx
  404552:	48 89 15 37 2a 21 00 	mov    %rdx,0x212a37(%rip)        # 616f90 <throttlefile>
  404559:	e9 b2 fd ff ff       	jmpq   404310 <parse_args+0x190>
	else if ( strcmp( argv[argn], "-h" ) == 0 && argn + 1 < argc )
  40455e:	be c9 ef 40 00       	mov    $0x40efc9,%esi
  404563:	48 89 df             	mov    %rbx,%rdi
  404566:	e8 a5 df ff ff       	callq  402510 <strcmp@plt>
  40456b:	85 c0                	test   %eax,%eax
  40456d:	75 2e                	jne    40459d <parse_args+0x41d>
  40456f:	8d 45 01             	lea    0x1(%rbp),%eax
  404572:	44 39 e8             	cmp    %r13d,%eax
  404575:	7d 54                	jge    4045cb <parse_args+0x44b>
	    hostname = argv[argn];
  404577:	48 63 d0             	movslq %eax,%rdx
  40457a:	89 c5                	mov    %eax,%ebp
  40457c:	49 8b 14 d6          	mov    (%r14,%rdx,8),%rdx
  404580:	48 89 15 01 2a 21 00 	mov    %rdx,0x212a01(%rip)        # 616f88 <hostname>
  404587:	e9 84 fd ff ff       	jmpq   404310 <parse_args+0x190>
	else if ( strcmp( argv[argn], "-h" ) == 0 && argn + 1 < argc )
  40458c:	be c9 ef 40 00       	mov    $0x40efc9,%esi
  404591:	48 89 df             	mov    %rbx,%rdi
  404594:	e8 77 df ff ff       	callq  402510 <strcmp@plt>
  404599:	85 c0                	test   %eax,%eax
  40459b:	74 2e                	je     4045cb <parse_args+0x44b>
	else if ( strcmp( argv[argn], "-l" ) == 0 && argn + 1 < argc )
  40459d:	be cc ef 40 00       	mov    $0x40efcc,%esi
  4045a2:	48 89 df             	mov    %rbx,%rdi
  4045a5:	e8 66 df ff ff       	callq  402510 <strcmp@plt>
  4045aa:	85 c0                	test   %eax,%eax
  4045ac:	75 1d                	jne    4045cb <parse_args+0x44b>
  4045ae:	8d 45 01             	lea    0x1(%rbp),%eax
  4045b1:	44 39 e8             	cmp    %r13d,%eax
  4045b4:	7d 15                	jge    4045cb <parse_args+0x44b>
	    logfile = argv[argn];
  4045b6:	48 63 d0             	movslq %eax,%rdx
  4045b9:	89 c5                	mov    %eax,%ebp
  4045bb:	49 8b 14 d6          	mov    (%r14,%rdx,8),%rdx
  4045bf:	48 89 15 d2 29 21 00 	mov    %rdx,0x2129d2(%rip)        # 616f98 <logfile>
  4045c6:	e9 45 fd ff ff       	jmpq   404310 <parse_args+0x190>
	else if ( strcmp( argv[argn], "-v" ) == 0 )
  4045cb:	be cf ef 40 00       	mov    $0x40efcf,%esi
  4045d0:	48 89 df             	mov    %rbx,%rdi
  4045d3:	e8 38 df ff ff       	callq  402510 <strcmp@plt>
  4045d8:	85 c0                	test   %eax,%eax
  4045da:	74 35                	je     404611 <parse_args+0x491>
	else if ( strcmp( argv[argn], "-nov" ) == 0 )
  4045dc:	be d2 ef 40 00       	mov    $0x40efd2,%esi
  4045e1:	48 89 df             	mov    %rbx,%rdi
  4045e4:	e8 27 df ff ff       	callq  402510 <strcmp@plt>
  4045e9:	85 c0                	test   %eax,%eax
  4045eb:	75 3d                	jne    40462a <parse_args+0x4aa>
	    do_vhost = 0;
  4045ed:	c7 05 d5 29 21 00 00 	movl   $0x0,0x2129d5(%rip)        # 616fcc <do_vhost>
  4045f4:	00 00 00 
  4045f7:	e9 14 fd ff ff       	jmpq   404310 <parse_args+0x190>
	    cgi_pattern = argv[argn];
  4045fc:	48 63 d0             	movslq %eax,%rdx
  4045ff:	89 c5                	mov    %eax,%ebp
  404601:	49 8b 14 d6          	mov    (%r14,%rdx,8),%rdx
  404605:	48 89 15 b4 29 21 00 	mov    %rdx,0x2129b4(%rip)        # 616fc0 <cgi_pattern>
  40460c:	e9 ff fc ff ff       	jmpq   404310 <parse_args+0x190>
	    do_vhost = 1;
  404611:	c7 05 b1 29 21 00 01 	movl   $0x1,0x2129b1(%rip)        # 616fcc <do_vhost>
  404618:	00 00 00 
  40461b:	e9 f0 fc ff ff       	jmpq   404310 <parse_args+0x190>
    argn = 1;
  404620:	bd 01 00 00 00       	mov    $0x1,%ebp
  404625:	e9 86 fd ff ff       	jmpq   4043b0 <parse_args+0x230>
	else if ( strcmp( argv[argn], "-g" ) == 0 )
  40462a:	be d7 ef 40 00       	mov    $0x40efd7,%esi
  40462f:	48 89 df             	mov    %rbx,%rdi
  404632:	e8 d9 de ff ff       	callq  402510 <strcmp@plt>
  404637:	85 c0                	test   %eax,%eax
  404639:	75 0f                	jne    40464a <parse_args+0x4ca>
	    do_global_passwd = 1;
  40463b:	c7 05 83 29 21 00 01 	movl   $0x1,0x212983(%rip)        # 616fc8 <do_global_passwd>
  404642:	00 00 00 
  404645:	e9 c6 fc ff ff       	jmpq   404310 <parse_args+0x190>
	else if ( strcmp( argv[argn], "-nog" ) == 0 )
  40464a:	be da ef 40 00       	mov    $0x40efda,%esi
  40464f:	48 89 df             	mov    %rbx,%rdi
  404652:	e8 b9 de ff ff       	callq  402510 <strcmp@plt>
  404657:	85 c0                	test   %eax,%eax
  404659:	75 0f                	jne    40466a <parse_args+0x4ea>
	    do_global_passwd = 0;
  40465b:	c7 05 63 29 21 00 00 	movl   $0x0,0x212963(%rip)        # 616fc8 <do_global_passwd>
  404662:	00 00 00 
  404665:	e9 a6 fc ff ff       	jmpq   404310 <parse_args+0x190>
	else if ( strcmp( argv[argn], "-i" ) == 0 && argn + 1 < argc )
  40466a:	be df ef 40 00       	mov    $0x40efdf,%esi
  40466f:	48 89 df             	mov    %rbx,%rdi
  404672:	e8 99 de ff ff       	callq  402510 <strcmp@plt>
  404677:	85 c0                	test   %eax,%eax
  404679:	75 1d                	jne    404698 <parse_args+0x518>
  40467b:	8d 45 01             	lea    0x1(%rbp),%eax
  40467e:	44 39 e8             	cmp    %r13d,%eax
  404681:	7d 43                	jge    4046c6 <parse_args+0x546>
	    pidfile = argv[argn];
  404683:	48 63 d0             	movslq %eax,%rdx
  404686:	89 c5                	mov    %eax,%ebp
  404688:	49 8b 14 d6          	mov    (%r14,%rdx,8),%rdx
  40468c:	48 89 15 ed 28 21 00 	mov    %rdx,0x2128ed(%rip)        # 616f80 <pidfile>
  404693:	e9 78 fc ff ff       	jmpq   404310 <parse_args+0x190>
	else if ( strcmp( argv[argn], "-T" ) == 0 && argn + 1 < argc )
  404698:	be e2 ef 40 00       	mov    $0x40efe2,%esi
  40469d:	48 89 df             	mov    %rbx,%rdi
  4046a0:	e8 6b de ff ff       	callq  402510 <strcmp@plt>
  4046a5:	85 c0                	test   %eax,%eax
  4046a7:	75 62                	jne    40470b <parse_args+0x58b>
  4046a9:	8d 45 01             	lea    0x1(%rbp),%eax
  4046ac:	44 39 e8             	cmp    %r13d,%eax
  4046af:	7d 15                	jge    4046c6 <parse_args+0x546>
	    charset = argv[argn];
  4046b1:	48 63 d0             	movslq %eax,%rdx
  4046b4:	89 c5                	mov    %eax,%ebp
  4046b6:	49 8b 14 d6          	mov    (%r14,%rdx,8),%rdx
  4046ba:	48 89 15 af 28 21 00 	mov    %rdx,0x2128af(%rip)        # 616f70 <charset>
  4046c1:	e9 4a fc ff ff       	jmpq   404310 <parse_args+0x190>
	else if ( strcmp( argv[argn], "-P" ) == 0 && argn + 1 < argc )
  4046c6:	be e5 ef 40 00       	mov    $0x40efe5,%esi
  4046cb:	48 89 df             	mov    %rbx,%rdi
  4046ce:	e8 3d de ff ff       	callq  402510 <strcmp@plt>
  4046d3:	85 c0                	test   %eax,%eax
  4046d5:	74 62                	je     404739 <parse_args+0x5b9>
	else if ( strcmp( argv[argn], "-M" ) == 0 && argn + 1 < argc )
  4046d7:	be e8 ef 40 00       	mov    $0x40efe8,%esi
  4046dc:	48 89 df             	mov    %rbx,%rdi
  4046df:	e8 2c de ff ff       	callq  402510 <strcmp@plt>
  4046e4:	85 c0                	test   %eax,%eax
  4046e6:	75 51                	jne    404739 <parse_args+0x5b9>
  4046e8:	44 8d 7d 01          	lea    0x1(%rbp),%r15d
  4046ec:	45 39 ef             	cmp    %r13d,%r15d
  4046ef:	7d 48                	jge    404739 <parse_args+0x5b9>
	    max_age = atoi( argv[argn] );
  4046f1:	49 63 c7             	movslq %r15d,%rax
  4046f4:	44 89 fd             	mov    %r15d,%ebp
  4046f7:	49 8b 3c c6          	mov    (%r14,%rax,8),%rdi
  4046fb:	e8 b0 e0 ff ff       	callq  4027b0 <atoi@plt>
  404700:	89 05 5a 28 21 00    	mov    %eax,0x21285a(%rip)        # 616f60 <max_age>
  404706:	e9 05 fc ff ff       	jmpq   404310 <parse_args+0x190>
	else if ( strcmp( argv[argn], "-P" ) == 0 && argn + 1 < argc )
  40470b:	be e5 ef 40 00       	mov    $0x40efe5,%esi
  404710:	48 89 df             	mov    %rbx,%rdi
  404713:	e8 f8 dd ff ff       	callq  402510 <strcmp@plt>
  404718:	85 c0                	test   %eax,%eax
  40471a:	75 bb                	jne    4046d7 <parse_args+0x557>
  40471c:	8d 45 01             	lea    0x1(%rbp),%eax
  40471f:	44 39 e8             	cmp    %r13d,%eax
  404722:	7d 15                	jge    404739 <parse_args+0x5b9>
	    p3p = argv[argn];
  404724:	48 63 d0             	movslq %eax,%rdx
  404727:	89 c5                	mov    %eax,%ebp
  404729:	49 8b 14 d6          	mov    (%r14,%rdx,8),%rdx
  40472d:	48 89 15 34 28 21 00 	mov    %rdx,0x212834(%rip)        # 616f68 <p3p>
  404734:	e9 d7 fb ff ff       	jmpq   404310 <parse_args+0x190>
	else if ( strcmp( argv[argn], "-D" ) == 0 )
  404739:	be eb ef 40 00       	mov    $0x40efeb,%esi
  40473e:	48 89 df             	mov    %rbx,%rdi
  404741:	e8 ca dd ff ff       	callq  402510 <strcmp@plt>
  404746:	85 c0                	test   %eax,%eax
  404748:	75 0f                	jne    404759 <parse_args+0x5d9>
	    debug = 1;
  40474a:	c7 05 a0 28 21 00 01 	movl   $0x1,0x2128a0(%rip)        # 616ff4 <debug>
  404751:	00 00 00 
  404754:	e9 b7 fb ff ff       	jmpq   404310 <parse_args+0x190>
	    usage();
  404759:	e8 32 f1 ff ff       	callq  403890 <usage>
  40475e:	66 90                	xchg   %ax,%ax

0000000000404760 <read_throttlefile>:
    {
  404760:	41 57                	push   %r15
    fp = fopen( throttlefile, "r" );
  404762:	be ad ef 40 00       	mov    $0x40efad,%esi
    {
  404767:	41 56                	push   %r14
  404769:	41 55                	push   %r13
  40476b:	49 89 fd             	mov    %rdi,%r13
  40476e:	41 54                	push   %r12
  404770:	55                   	push   %rbp
  404771:	53                   	push   %rbx
  404772:	48 81 ec 48 27 00 00 	sub    $0x2748,%rsp
    fp = fopen( throttlefile, "r" );
  404779:	e8 e2 df ff ff       	callq  402760 <fopen@plt>
    if ( fp == (FILE*) 0 )
  40477e:	48 85 c0             	test   %rax,%rax
  404781:	0f 84 d5 02 00 00    	je     404a5c <read_throttlefile+0x2fc>
    (void) gettimeofday( &tv, (struct timezone*) 0 );
  404787:	31 f6                	xor    %esi,%esi
  404789:	48 8d 7c 24 10       	lea    0x10(%rsp),%rdi
  40478e:	48 8d 6c 24 20       	lea    0x20(%rsp),%rbp
  404793:	49 89 c4             	mov    %rax,%r12
  404796:	e8 65 dc ff ff       	callq  402400 <gettimeofday@plt>
	    (void) strcpy( pattern, &pattern[1] );
  40479b:	4c 8d b4 24 b1 13 00 	lea    0x13b1(%rsp),%r14
  4047a2:	00 
		( buf[len-1] == ' ' || buf[len-1] == '\t' ||
  4047a3:	48 bb 00 26 00 00 01 	movabs $0x100002600,%rbx
  4047aa:	00 00 00 
  4047ad:	0f 1f 00             	nopl   (%rax)
    while ( fgets( buf, sizeof(buf), fp ) != (char*) 0 )
  4047b0:	4c 89 e2             	mov    %r12,%rdx
  4047b3:	be 88 13 00 00       	mov    $0x1388,%esi
  4047b8:	48 89 ef             	mov    %rbp,%rdi
  4047bb:	e8 20 dd ff ff       	callq  4024e0 <fgets@plt>
  4047c0:	48 85 c0             	test   %rax,%rax
  4047c3:	0f 84 79 02 00 00    	je     404a42 <read_throttlefile+0x2e2>
	cp = strchr( buf, '#' );
  4047c9:	be 23 00 00 00       	mov    $0x23,%esi
  4047ce:	48 89 ef             	mov    %rbp,%rdi
  4047d1:	e8 ea db ff ff       	callq  4023c0 <strchr@plt>
	if ( cp != (char*) 0 )
  4047d6:	48 85 c0             	test   %rax,%rax
  4047d9:	74 03                	je     4047de <read_throttlefile+0x7e>
	    *cp = '\0';
  4047db:	c6 00 00             	movb   $0x0,(%rax)
	len = strlen( buf );
  4047de:	48 89 ea             	mov    %rbp,%rdx
  4047e1:	8b 0a                	mov    (%rdx),%ecx
  4047e3:	48 83 c2 04          	add    $0x4,%rdx
  4047e7:	8d 81 ff fe fe fe    	lea    -0x1010101(%rcx),%eax
  4047ed:	f7 d1                	not    %ecx
  4047ef:	21 c8                	and    %ecx,%eax
  4047f1:	25 80 80 80 80       	and    $0x80808080,%eax
  4047f6:	74 e9                	je     4047e1 <read_throttlefile+0x81>
  4047f8:	89 c1                	mov    %eax,%ecx
  4047fa:	c1 e9 10             	shr    $0x10,%ecx
  4047fd:	a9 80 80 00 00       	test   $0x8080,%eax
  404802:	0f 44 c1             	cmove  %ecx,%eax
  404805:	48 8d 4a 02          	lea    0x2(%rdx),%rcx
  404809:	48 0f 44 d1          	cmove  %rcx,%rdx
  40480d:	89 c6                	mov    %eax,%esi
  40480f:	40 00 c6             	add    %al,%sil
  404812:	48 83 da 03          	sbb    $0x3,%rdx
  404816:	48 29 ea             	sub    %rbp,%rdx
  404819:	48 63 c2             	movslq %edx,%rax
	while ( len > 0 &&
  40481c:	74 92                	je     4047b0 <read_throttlefile+0x50>
		( buf[len-1] == ' ' || buf[len-1] == '\t' ||
  40481e:	83 ea 01             	sub    $0x1,%edx
  404821:	48 63 ca             	movslq %edx,%rcx
  404824:	0f b6 4c 0c 20       	movzbl 0x20(%rsp,%rcx,1),%ecx
  404829:	80 f9 20             	cmp    $0x20,%cl
  40482c:	0f 86 8e 00 00 00    	jbe    4048c0 <read_throttlefile+0x160>
  404832:	66 0f 1f 44 00 00    	nopw   0x0(%rax,%rax,1)
	if ( sscanf( buf, " %4900[^ \t] %ld-%ld", pattern, &min_limit, &max_limit ) == 3 )
  404838:	31 c0                	xor    %eax,%eax
  40483a:	49 89 e0             	mov    %rsp,%r8
  40483d:	48 8d 4c 24 08       	lea    0x8(%rsp),%rcx
  404842:	be 01 f0 40 00       	mov    $0x40f001,%esi
  404847:	48 8d 94 24 b0 13 00 	lea    0x13b0(%rsp),%rdx
  40484e:	00 
  40484f:	48 89 ef             	mov    %rbp,%rdi
  404852:	e8 b9 dd ff ff       	callq  402610 <__isoc99_sscanf@plt>
  404857:	83 f8 03             	cmp    $0x3,%eax
  40485a:	0f 84 b1 00 00 00    	je     404911 <read_throttlefile+0x1b1>
	else if ( sscanf( buf, " %4900[^ \t] %ld", pattern, &max_limit ) == 2 )
  404860:	31 c0                	xor    %eax,%eax
  404862:	48 89 e1             	mov    %rsp,%rcx
  404865:	48 8d 94 24 b0 13 00 	lea    0x13b0(%rsp),%rdx
  40486c:	00 
  40486d:	48 89 ef             	mov    %rbp,%rdi
  404870:	be ee ef 40 00       	mov    $0x40efee,%esi
  404875:	e8 96 dd ff ff       	callq  402610 <__isoc99_sscanf@plt>
  40487a:	83 f8 02             	cmp    $0x2,%eax
  40487d:	0f 84 85 00 00 00    	je     404908 <read_throttlefile+0x1a8>
	    syslog( LOG_CRIT,
  404883:	48 89 e9             	mov    %rbp,%rcx
  404886:	4c 89 ea             	mov    %r13,%rdx
  404889:	31 c0                	xor    %eax,%eax
  40488b:	be 60 ea 40 00       	mov    $0x40ea60,%esi
  404890:	bf 02 00 00 00       	mov    $0x2,%edi
  404895:	e8 86 dd ff ff       	callq  402620 <syslog@plt>
	    (void) fprintf( stderr,
  40489a:	49 89 e8             	mov    %rbp,%r8
  40489d:	4c 89 e9             	mov    %r13,%rcx
  4048a0:	be 88 ea 40 00       	mov    $0x40ea88,%esi
  4048a5:	48 8b 15 4c 27 21 00 	mov    0x21274c(%rip),%rdx        # 616ff8 <argv0>
  4048ac:	48 8b 3d 5d 26 21 00 	mov    0x21265d(%rip),%rdi        # 616f10 <stderr@@GLIBC_2.2.5>
  4048b3:	31 c0                	xor    %eax,%eax
  4048b5:	e8 76 dc ff ff       	callq  402530 <fprintf@plt>
	    continue;
  4048ba:	e9 f1 fe ff ff       	jmpq   4047b0 <read_throttlefile+0x50>
  4048bf:	90                   	nop
		  buf[len-1] == '\n' || buf[len-1] == '\r' ) )
  4048c0:	48 0f a3 cb          	bt     %rcx,%rbx
  4048c4:	0f 83 6e ff ff ff    	jae    404838 <read_throttlefile+0xd8>
  4048ca:	48 01 e8             	add    %rbp,%rax
  4048cd:	89 d2                	mov    %edx,%edx
  4048cf:	48 89 c1             	mov    %rax,%rcx
  4048d2:	48 29 d1             	sub    %rdx,%rcx
  4048d5:	0f 1f 00             	nopl   (%rax)
	    buf[--len] = '\0';
  4048d8:	c6 40 ff 00          	movb   $0x0,-0x1(%rax)
	while ( len > 0 &&
  4048dc:	48 39 c8             	cmp    %rcx,%rax
  4048df:	0f 84 cb fe ff ff    	je     4047b0 <read_throttlefile+0x50>
		( buf[len-1] == ' ' || buf[len-1] == '\t' ||
  4048e5:	0f b6 50 fe          	movzbl -0x2(%rax),%edx
  4048e9:	80 fa 20             	cmp    $0x20,%dl
  4048ec:	0f 87 46 ff ff ff    	ja     404838 <read_throttlefile+0xd8>
  4048f2:	48 83 e8 01          	sub    $0x1,%rax
		  buf[len-1] == '\n' || buf[len-1] == '\r' ) )
  4048f6:	48 0f a3 d3          	bt     %rdx,%rbx
  4048fa:	72 dc                	jb     4048d8 <read_throttlefile+0x178>
  4048fc:	e9 37 ff ff ff       	jmpq   404838 <read_throttlefile+0xd8>
  404901:	0f 1f 80 00 00 00 00 	nopl   0x0(%rax)
	    min_limit = 0;
  404908:	48 c7 44 24 08 00 00 	movq   $0x0,0x8(%rsp)
  40490f:	00 00 
	if ( pattern[0] == '/' )
  404911:	80 bc 24 b0 13 00 00 	cmpb   $0x2f,0x13b0(%rsp)
  404918:	2f 
  404919:	75 12                	jne    40492d <read_throttlefile+0x1cd>
  40491b:	e9 0d 01 00 00       	jmpq   404a2d <read_throttlefile+0x2cd>
	    (void) strcpy( cp + 1, cp + 2 );
  404920:	48 8d 70 02          	lea    0x2(%rax),%rsi
  404924:	48 8d 78 01          	lea    0x1(%rax),%rdi
  404928:	e8 33 d9 ff ff       	callq  402260 <strcpy@plt>
	while ( ( cp = strstr( pattern, "|/" ) ) != (char*) 0 )
  40492d:	be fe ef 40 00       	mov    $0x40effe,%esi
  404932:	48 8d bc 24 b0 13 00 	lea    0x13b0(%rsp),%rdi
  404939:	00 
  40493a:	e8 51 df ff ff       	callq  402890 <strstr@plt>
  40493f:	48 85 c0             	test   %rax,%rax
  404942:	75 dc                	jne    404920 <read_throttlefile+0x1c0>
	if ( numthrottles >= maxthrottles )
  404944:	48 63 15 09 26 21 00 	movslq 0x212609(%rip),%rdx        # 616f54 <numthrottles>
  40494b:	8b 05 ff 25 21 00    	mov    0x2125ff(%rip),%eax        # 616f50 <maxthrottles>
  404951:	39 c2                	cmp    %eax,%edx
  404953:	0f 8c c8 00 00 00    	jl     404a21 <read_throttlefile+0x2c1>
	    if ( maxthrottles == 0 )
  404959:	85 c0                	test   %eax,%eax
  40495b:	0f 85 96 00 00 00    	jne    4049f7 <read_throttlefile+0x297>
		maxthrottles = 100;     /* arbitrary */
  404961:	c7 05 e5 25 21 00 64 	movl   $0x64,0x2125e5(%rip)        # 616f50 <maxthrottles>
  404968:	00 00 00 
		throttles = NEW( throttletab, maxthrottles );
  40496b:	bf c0 12 00 00       	mov    $0x12c0,%edi
  404970:	e8 5b dc ff ff       	callq  4025d0 <malloc@plt>
  404975:	48 89 05 dc 25 21 00 	mov    %rax,0x2125dc(%rip)        # 616f58 <throttles>
	    if ( throttles == (throttletab*) 0 )
  40497c:	48 85 c0             	test   %rax,%rax
  40497f:	0f 84 fd 00 00 00    	je     404a82 <read_throttlefile+0x322>
  404985:	48 63 15 c8 25 21 00 	movslq 0x2125c8(%rip),%rdx        # 616f54 <numthrottles>
	throttles[numthrottles].pattern = e_strdup( pattern );
  40498c:	48 8d 14 52          	lea    (%rdx,%rdx,2),%rdx
  404990:	48 8d bc 24 b0 13 00 	lea    0x13b0(%rsp),%rdi
  404997:	00 
  404998:	48 c1 e2 04          	shl    $0x4,%rdx
  40499c:	4c 8d 3c 10          	lea    (%rax,%rdx,1),%r15
  4049a0:	e8 0b f1 ff ff       	callq  403ab0 <e_strdup>
	throttles[numthrottles].max_limit = max_limit;
  4049a5:	48 8b 0c 24          	mov    (%rsp),%rcx
	throttles[numthrottles].pattern = e_strdup( pattern );
  4049a9:	49 89 07             	mov    %rax,(%r15)
	throttles[numthrottles].max_limit = max_limit;
  4049ac:	48 63 05 a1 25 21 00 	movslq 0x2125a1(%rip),%rax        # 616f54 <numthrottles>
  4049b3:	48 89 c2             	mov    %rax,%rdx
  4049b6:	48 8d 04 40          	lea    (%rax,%rax,2),%rax
  4049ba:	48 c1 e0 04          	shl    $0x4,%rax
  4049be:	48 03 05 93 25 21 00 	add    0x212593(%rip),%rax        # 616f58 <throttles>
	++numthrottles;
  4049c5:	83 c2 01             	add    $0x1,%edx
	throttles[numthrottles].max_limit = max_limit;
  4049c8:	48 89 48 08          	mov    %rcx,0x8(%rax)
	throttles[numthrottles].min_limit = min_limit;
  4049cc:	48 8b 4c 24 08       	mov    0x8(%rsp),%rcx
	throttles[numthrottles].rate = 0;
  4049d1:	48 c7 40 18 00 00 00 	movq   $0x0,0x18(%rax)
  4049d8:	00 
	throttles[numthrottles].min_limit = min_limit;
  4049d9:	48 89 48 10          	mov    %rcx,0x10(%rax)
	throttles[numthrottles].bytes_since_avg = 0;
  4049dd:	48 c7 40 20 00 00 00 	movq   $0x0,0x20(%rax)
  4049e4:	00 
	throttles[numthrottles].num_sending = 0;
  4049e5:	c7 40 28 00 00 00 00 	movl   $0x0,0x28(%rax)
	++numthrottles;
  4049ec:	89 15 62 25 21 00    	mov    %edx,0x212562(%rip)        # 616f54 <numthrottles>
  4049f2:	e9 b9 fd ff ff       	jmpq   4047b0 <read_throttlefile+0x50>
		maxthrottles *= 2;
  4049f7:	01 c0                	add    %eax,%eax
		throttles = RENEW( throttles, throttletab, maxthrottles );
  4049f9:	48 8b 3d 58 25 21 00 	mov    0x212558(%rip),%rdi        # 616f58 <throttles>
		maxthrottles *= 2;
  404a00:	89 05 4a 25 21 00    	mov    %eax,0x21254a(%rip)        # 616f50 <maxthrottles>
		throttles = RENEW( throttles, throttletab, maxthrottles );
  404a06:	48 98                	cltq   
  404a08:	48 8d 34 40          	lea    (%rax,%rax,2),%rsi
  404a0c:	48 c1 e6 04          	shl    $0x4,%rsi
  404a10:	e8 6b dc ff ff       	callq  402680 <realloc@plt>
  404a15:	48 89 05 3c 25 21 00 	mov    %rax,0x21253c(%rip)        # 616f58 <throttles>
  404a1c:	e9 5b ff ff ff       	jmpq   40497c <read_throttlefile+0x21c>
  404a21:	48 8b 05 30 25 21 00 	mov    0x212530(%rip),%rax        # 616f58 <throttles>
  404a28:	e9 5f ff ff ff       	jmpq   40498c <read_throttlefile+0x22c>
	    (void) strcpy( pattern, &pattern[1] );
  404a2d:	4c 89 f6             	mov    %r14,%rsi
  404a30:	48 8d bc 24 b0 13 00 	lea    0x13b0(%rsp),%rdi
  404a37:	00 
  404a38:	e8 23 d8 ff ff       	callq  402260 <strcpy@plt>
  404a3d:	e9 eb fe ff ff       	jmpq   40492d <read_throttlefile+0x1cd>
    (void) fclose( fp );
  404a42:	4c 89 e7             	mov    %r12,%rdi
  404a45:	e8 d6 d8 ff ff       	callq  402320 <fclose@plt>
    }
  404a4a:	48 81 c4 48 27 00 00 	add    $0x2748,%rsp
  404a51:	5b                   	pop    %rbx
  404a52:	5d                   	pop    %rbp
  404a53:	41 5c                	pop    %r12
  404a55:	41 5d                	pop    %r13
  404a57:	41 5e                	pop    %r14
  404a59:	41 5f                	pop    %r15
  404a5b:	c3                   	retq   
	syslog( LOG_CRIT, "%.80s - %m", throttlefile );
  404a5c:	4c 89 ea             	mov    %r13,%rdx
  404a5f:	be 51 f5 40 00       	mov    $0x40f551,%esi
  404a64:	bf 02 00 00 00       	mov    $0x2,%edi
  404a69:	31 c0                	xor    %eax,%eax
  404a6b:	e8 b0 db ff ff       	callq  402620 <syslog@plt>
	perror( throttlefile );
  404a70:	4c 89 ef             	mov    %r13,%rdi
  404a73:	e8 f8 dc ff ff       	callq  402770 <perror@plt>
	exit( 1 );
  404a78:	bf 01 00 00 00       	mov    $0x1,%edi
  404a7d:	e8 7e dd ff ff       	callq  402800 <exit@plt>
		syslog( LOG_CRIT, "out of memory allocating a throttletab" );
  404a82:	be b0 ea 40 00       	mov    $0x40eab0,%esi
  404a87:	bf 02 00 00 00       	mov    $0x2,%edi
  404a8c:	31 c0                	xor    %eax,%eax
  404a8e:	e8 8d db ff ff       	callq  402620 <syslog@plt>
		(void) fprintf(
  404a93:	48 8b 3d 76 24 21 00 	mov    0x212476(%rip),%rdi        # 616f10 <stderr@@GLIBC_2.2.5>
  404a9a:	48 8b 15 57 25 21 00 	mov    0x212557(%rip),%rdx        # 616ff8 <argv0>
  404aa1:	31 c0                	xor    %eax,%eax
  404aa3:	be d8 ea 40 00       	mov    $0x40ead8,%esi
  404aa8:	e8 83 da ff ff       	callq  402530 <fprintf@plt>
		exit( 1 );
  404aad:	bf 01 00 00 00       	mov    $0x1,%edi
  404ab2:	e8 49 dd ff ff       	callq  402800 <exit@plt>
  404ab7:	66 0f 1f 84 00 00 00 	nopw   0x0(%rax,%rax,1)
  404abe:	00 00 

0000000000404ac0 <re_open_logfile>:
    if ( no_log || hs == (httpd_server*) 0 )
  404ac0:	8b 05 0e 25 21 00    	mov    0x21250e(%rip),%eax        # 616fd4 <no_log>
  404ac6:	85 c0                	test   %eax,%eax
  404ac8:	75 2b                	jne    404af5 <re_open_logfile+0x35>
  404aca:	48 83 3d 5e 24 21 00 	cmpq   $0x0,0x21245e(%rip)        # 616f30 <hs>
  404ad1:	00 
  404ad2:	74 21                	je     404af5 <re_open_logfile+0x35>
    if ( logfile != (char*) 0 && strcmp( logfile, "-" ) != 0 )
  404ad4:	48 8b 35 bd 24 21 00 	mov    0x2124bd(%rip),%rsi        # 616f98 <logfile>
  404adb:	48 85 f6             	test   %rsi,%rsi
  404ade:	74 15                	je     404af5 <re_open_logfile+0x35>
  404ae0:	bf 99 f9 40 00       	mov    $0x40f999,%edi
  404ae5:	b9 02 00 00 00       	mov    $0x2,%ecx
  404aea:	f3 a6                	repz cmpsb %es:(%rdi),%ds:(%rsi)
  404aec:	0f 97 c0             	seta   %al
  404aef:	1c 00                	sbb    $0x0,%al
  404af1:	84 c0                	test   %al,%al
  404af3:	75 0b                	jne    404b00 <re_open_logfile+0x40>
  404af5:	c3                   	retq   
  404af6:	66 2e 0f 1f 84 00 00 	nopw   %cs:0x0(%rax,%rax,1)
  404afd:	00 00 00 
    {
  404b00:	55                   	push   %rbp
	syslog( LOG_NOTICE, "re-opening logfile" );
  404b01:	31 c0                	xor    %eax,%eax
  404b03:	be 15 f0 40 00       	mov    $0x40f015,%esi
  404b08:	bf 05 00 00 00       	mov    $0x5,%edi
    {
  404b0d:	53                   	push   %rbx
  404b0e:	48 83 ec 08          	sub    $0x8,%rsp
	syslog( LOG_NOTICE, "re-opening logfile" );
  404b12:	e8 09 db ff ff       	callq  402620 <syslog@plt>
	logfp = fopen( logfile, "a" );
  404b17:	48 8b 3d 7a 24 21 00 	mov    0x21247a(%rip),%rdi        # 616f98 <logfile>
  404b1e:	be c7 fe 40 00       	mov    $0x40fec7,%esi
  404b23:	e8 38 dc ff ff       	callq  402760 <fopen@plt>
	retchmod = chmod( logfile, S_IRUSR|S_IWUSR );
  404b28:	48 8b 2d 69 24 21 00 	mov    0x212469(%rip),%rbp        # 616f98 <logfile>
  404b2f:	be 80 01 00 00       	mov    $0x180,%esi
	logfp = fopen( logfile, "a" );
  404b34:	48 89 c3             	mov    %rax,%rbx
	retchmod = chmod( logfile, S_IRUSR|S_IWUSR );
  404b37:	48 89 ef             	mov    %rbp,%rdi
  404b3a:	e8 81 db ff ff       	callq  4026c0 <chmod@plt>
	if ( logfp == (FILE*) 0 || retchmod != 0 )
  404b3f:	48 85 db             	test   %rbx,%rbx
  404b42:	74 3c                	je     404b80 <re_open_logfile+0xc0>
  404b44:	85 c0                	test   %eax,%eax
  404b46:	75 38                	jne    404b80 <re_open_logfile+0xc0>
	(void) fcntl( fileno( logfp ), F_SETFD, 1 );
  404b48:	48 89 df             	mov    %rbx,%rdi
  404b4b:	e8 30 da ff ff       	callq  402580 <fileno@plt>
  404b50:	be 02 00 00 00       	mov    $0x2,%esi
  404b55:	ba 01 00 00 00       	mov    $0x1,%edx
  404b5a:	89 c7                	mov    %eax,%edi
  404b5c:	31 c0                	xor    %eax,%eax
  404b5e:	e8 8d d7 ff ff       	callq  4022f0 <fcntl@plt>
	httpd_set_logfp( hs, logfp );
  404b63:	48 8b 3d c6 23 21 00 	mov    0x2123c6(%rip),%rdi        # 616f30 <hs>
    }
  404b6a:	48 83 c4 08          	add    $0x8,%rsp
	httpd_set_logfp( hs, logfp );
  404b6e:	48 89 de             	mov    %rbx,%rsi
    }
  404b71:	5b                   	pop    %rbx
  404b72:	5d                   	pop    %rbp
	httpd_set_logfp( hs, logfp );
  404b73:	e9 a8 23 00 00       	jmpq   406f20 <httpd_set_logfp>
  404b78:	0f 1f 84 00 00 00 00 	nopl   0x0(%rax,%rax,1)
  404b7f:	00 
    }
  404b80:	48 83 c4 08          	add    $0x8,%rsp
	    syslog( LOG_CRIT, "re-opening %.80s - %m", logfile );
  404b84:	48 89 ea             	mov    %rbp,%rdx
  404b87:	be 28 f0 40 00       	mov    $0x40f028,%esi
  404b8c:	31 c0                	xor    %eax,%eax
    }
  404b8e:	5b                   	pop    %rbx
	    syslog( LOG_CRIT, "re-opening %.80s - %m", logfile );
  404b8f:	bf 02 00 00 00       	mov    $0x2,%edi
    }
  404b94:	5d                   	pop    %rbp
	    syslog( LOG_CRIT, "re-opening %.80s - %m", logfile );
  404b95:	e9 86 da ff ff       	jmpq   402620 <syslog@plt>
  404b9a:	66 0f 1f 44 00 00    	nopw   0x0(%rax,%rax,1)

0000000000404ba0 <handle_newconnect>:
    {
  404ba0:	41 55                	push   %r13
	c->conn_state = CNST_READING;
  404ba2:	49 bd 01 00 00 00 ff 	movabs $0xffffffff00000001,%r13
  404ba9:	ff ff ff 
    {
  404bac:	41 54                	push   %r12
  404bae:	49 89 fc             	mov    %rdi,%r12
  404bb1:	55                   	push   %rbp
  404bb2:	89 f5                	mov    %esi,%ebp
  404bb4:	53                   	push   %rbx
  404bb5:	48 83 ec 18          	sub    $0x18,%rsp
  404bb9:	8b 05 85 23 21 00    	mov    0x212385(%rip),%eax        # 616f44 <num_connects>
	if ( num_connects >= max_connects )
  404bbf:	39 05 7b 23 21 00    	cmp    %eax,0x21237b(%rip)        # 616f40 <max_connects>
  404bc5:	0f 8e 45 01 00 00    	jle    404d10 <handle_newconnect+0x170>
	if ( first_free_connect == -1 || connects[first_free_connect].conn_state != CNST_FREE )
  404bcb:	48 63 05 6a 23 21 00 	movslq 0x21236a(%rip),%rax        # 616f3c <first_free_connect>
  404bd2:	83 f8 ff             	cmp    $0xffffffff,%eax
  404bd5:	0f 84 52 01 00 00    	je     404d2d <handle_newconnect+0x18d>
  404bdb:	48 8d 1c c0          	lea    (%rax,%rax,8),%rbx
  404bdf:	48 c1 e3 04          	shl    $0x4,%rbx
  404be3:	48 03 1d 5e 23 21 00 	add    0x21235e(%rip),%rbx        # 616f48 <connects>
  404bea:	8b 03                	mov    (%rbx),%eax
  404bec:	85 c0                	test   %eax,%eax
  404bee:	0f 85 39 01 00 00    	jne    404d2d <handle_newconnect+0x18d>
	if ( c->hc == (httpd_conn*) 0 )
  404bf4:	48 8b 53 08          	mov    0x8(%rbx),%rdx
  404bf8:	48 85 d2             	test   %rdx,%rdx
  404bfb:	0f 84 df 00 00 00    	je     404ce0 <handle_newconnect+0x140>
	switch ( httpd_get_conn( hs, listen_fd, c->hc ) )
  404c01:	48 8b 3d 28 23 21 00 	mov    0x212328(%rip),%rdi        # 616f30 <hs>
  404c08:	89 ee                	mov    %ebp,%esi
  404c0a:	e8 31 3a 00 00       	callq  408640 <httpd_get_conn>
  404c0f:	85 c0                	test   %eax,%eax
  404c11:	0f 84 a9 00 00 00    	je     404cc0 <handle_newconnect+0x120>
  404c17:	83 f8 02             	cmp    $0x2,%eax
  404c1a:	0f 84 88 00 00 00    	je     404ca8 <handle_newconnect+0x108>
	first_free_connect = c->next_free_connect;
  404c20:	8b 43 04             	mov    0x4(%rbx),%eax
	c->conn_state = CNST_READING;
  404c23:	4c 89 2b             	mov    %r13,(%rbx)
	++num_connects;
  404c26:	83 05 17 23 21 00 01 	addl   $0x1,0x212317(%rip)        # 616f44 <num_connects>
	first_free_connect = c->next_free_connect;
  404c2d:	89 05 09 23 21 00    	mov    %eax,0x212309(%rip)        # 616f3c <first_free_connect>
	c->active_at = tvP->tv_sec;
  404c33:	49 8b 04 24          	mov    (%r12),%rax
	c->wakeup_timer = (Timer*) 0;
  404c37:	48 c7 43 60 00 00 00 	movq   $0x0,0x60(%rbx)
  404c3e:	00 
	c->active_at = tvP->tv_sec;
  404c3f:	48 89 43 58          	mov    %rax,0x58(%rbx)
	httpd_set_ndelay( c->hc->conn_fd );
  404c43:	48 8b 43 08          	mov    0x8(%rbx),%rax
	c->linger_timer = (Timer*) 0;
  404c47:	48 c7 43 68 00 00 00 	movq   $0x0,0x68(%rbx)
  404c4e:	00 
	c->numtnums = 0;
  404c4f:	c7 43 38 00 00 00 00 	movl   $0x0,0x38(%rbx)
	httpd_set_ndelay( c->hc->conn_fd );
  404c56:	8b b8 c0 02 00 00    	mov    0x2c0(%rax),%edi
	c->next_byte_index = 0;
  404c5c:	48 c7 83 88 00 00 00 	movq   $0x0,0x88(%rbx)
  404c63:	00 00 00 00 
	httpd_set_ndelay( c->hc->conn_fd );
  404c67:	e8 44 23 00 00       	callq  406fb0 <httpd_set_ndelay>
	fdwatch_add_fd( c->hc->conn_fd, c, FDW_READ );
  404c6c:	48 8b 43 08          	mov    0x8(%rbx),%rax
  404c70:	31 d2                	xor    %edx,%edx
  404c72:	48 89 de             	mov    %rbx,%rsi
  404c75:	8b b8 c0 02 00 00    	mov    0x2c0(%rax),%edi
  404c7b:	e8 20 13 00 00       	callq  405fa0 <fdwatch_add_fd>
	++stats_connections;
  404c80:	48 83 05 58 2b 21 00 	addq   $0x1,0x212b58(%rip)        # 6177e0 <stats_connections>
  404c87:	01 
	if ( num_connects > stats_simultaneous )
  404c88:	8b 05 b6 22 21 00    	mov    0x2122b6(%rip),%eax        # 616f44 <num_connects>
  404c8e:	3b 05 34 2b 21 00    	cmp    0x212b34(%rip),%eax        # 6177c8 <stats_simultaneous>
  404c94:	0f 8e 25 ff ff ff    	jle    404bbf <handle_newconnect+0x1f>
	    stats_simultaneous = num_connects;
  404c9a:	89 05 28 2b 21 00    	mov    %eax,0x212b28(%rip)        # 6177c8 <stats_simultaneous>
  404ca0:	e9 1a ff ff ff       	jmpq   404bbf <handle_newconnect+0x1f>
  404ca5:	0f 1f 00             	nopl   (%rax)
	    return 1;
  404ca8:	b8 01 00 00 00       	mov    $0x1,%eax
    }
  404cad:	48 83 c4 18          	add    $0x18,%rsp
  404cb1:	5b                   	pop    %rbx
  404cb2:	5d                   	pop    %rbp
  404cb3:	41 5c                	pop    %r12
  404cb5:	41 5d                	pop    %r13
  404cb7:	c3                   	retq   
  404cb8:	0f 1f 84 00 00 00 00 	nopl   0x0(%rax,%rax,1)
  404cbf:	00 
	    tmr_run( tvP );
  404cc0:	4c 89 e7             	mov    %r12,%rdi
  404cc3:	89 44 24 0c          	mov    %eax,0xc(%rsp)
  404cc7:	e8 74 8d 00 00       	callq  40da40 <tmr_run>
	    return 0;
  404ccc:	8b 44 24 0c          	mov    0xc(%rsp),%eax
    }
  404cd0:	48 83 c4 18          	add    $0x18,%rsp
  404cd4:	5b                   	pop    %rbx
  404cd5:	5d                   	pop    %rbp
  404cd6:	41 5c                	pop    %r12
  404cd8:	41 5d                	pop    %r13
  404cda:	c3                   	retq   
  404cdb:	0f 1f 44 00 00       	nopl   0x0(%rax,%rax,1)
	    c->hc = NEW( httpd_conn, 1 );
  404ce0:	bf d0 02 00 00       	mov    $0x2d0,%edi
  404ce5:	e8 e6 d8 ff ff       	callq  4025d0 <malloc@plt>
  404cea:	48 89 c2             	mov    %rax,%rdx
  404ced:	48 89 43 08          	mov    %rax,0x8(%rbx)
	    if ( c->hc == (httpd_conn*) 0 )
  404cf1:	48 85 c0             	test   %rax,%rax
  404cf4:	74 52                	je     404d48 <handle_newconnect+0x1a8>
	    c->hc->initialized = 0;
  404cf6:	c7 00 00 00 00 00    	movl   $0x0,(%rax)
	    ++httpd_conn_count;
  404cfc:	83 05 35 22 21 00 01 	addl   $0x1,0x212235(%rip)        # 616f38 <httpd_conn_count>
  404d03:	e9 f9 fe ff ff       	jmpq   404c01 <handle_newconnect+0x61>
  404d08:	0f 1f 84 00 00 00 00 	nopl   0x0(%rax,%rax,1)
  404d0f:	00 
	    syslog( LOG_WARNING, "too many connections!" );
  404d10:	31 c0                	xor    %eax,%eax
  404d12:	be 3e f0 40 00       	mov    $0x40f03e,%esi
  404d17:	bf 04 00 00 00       	mov    $0x4,%edi
  404d1c:	e8 ff d8 ff ff       	callq  402620 <syslog@plt>
	    tmr_run( tvP );
  404d21:	4c 89 e7             	mov    %r12,%rdi
  404d24:	e8 17 8d 00 00       	callq  40da40 <tmr_run>
	    return 0;
  404d29:	31 c0                	xor    %eax,%eax
  404d2b:	eb 80                	jmp    404cad <handle_newconnect+0x10d>
	    syslog( LOG_CRIT, "the connects free list is messed up" );
  404d2d:	be 08 eb 40 00       	mov    $0x40eb08,%esi
		syslog( LOG_CRIT, "out of memory allocating an httpd_conn" );
  404d32:	bf 02 00 00 00       	mov    $0x2,%edi
  404d37:	31 c0                	xor    %eax,%eax
  404d39:	e8 e2 d8 ff ff       	callq  402620 <syslog@plt>
		exit( 1 );
  404d3e:	bf 01 00 00 00       	mov    $0x1,%edi
  404d43:	e8 b8 da ff ff       	callq  402800 <exit@plt>
		syslog( LOG_CRIT, "out of memory allocating an httpd_conn" );
  404d48:	be 30 eb 40 00       	mov    $0x40eb30,%esi
  404d4d:	eb e3                	jmp    404d32 <handle_newconnect+0x192>
  404d4f:	90                   	nop

0000000000404d50 <check_throttles>:
    c->max_limit = c->min_limit = THROTTLE_NOLIMIT;
  404d50:	48 c7 c0 ff ff ff ff 	mov    $0xffffffffffffffff,%rax
    c->numtnums = 0;
  404d57:	c7 47 38 00 00 00 00 	movl   $0x0,0x38(%rdi)
    c->max_limit = c->min_limit = THROTTLE_NOLIMIT;
  404d5e:	48 89 47 48          	mov    %rax,0x48(%rdi)
  404d62:	48 89 47 40          	mov    %rax,0x40(%rdi)
    for ( tnum = 0; tnum < numthrottles && c->numtnums < MAXTHROTTLENUMS;
  404d66:	8b 05 e8 21 21 00    	mov    0x2121e8(%rip),%eax        # 616f54 <numthrottles>
  404d6c:	85 c0                	test   %eax,%eax
  404d6e:	0f 8e 4f 01 00 00    	jle    404ec3 <check_throttles+0x173>
    {
  404d74:	41 56                	push   %r14
  404d76:	41 55                	push   %r13
  404d78:	41 54                	push   %r12
  404d7a:	55                   	push   %rbp
  404d7b:	48 89 fd             	mov    %rdi,%rbp
  404d7e:	53                   	push   %rbx
  404d7f:	31 db                	xor    %ebx,%ebx
  404d81:	eb 2f                	jmp    404db2 <check_throttles+0x62>
  404d83:	0f 1f 44 00 00       	nopl   0x0(%rax,%rax,1)
		c->min_limit = MAX( c->min_limit, l );
  404d88:	48 39 f8             	cmp    %rdi,%rax
  404d8b:	48 0f 4c c7          	cmovl  %rdi,%rax
  404d8f:	48 89 45 48          	mov    %rax,0x48(%rbp)
    for ( tnum = 0; tnum < numthrottles && c->numtnums < MAXTHROTTLENUMS;
  404d93:	41 83 c5 01          	add    $0x1,%r13d
  404d97:	44 39 2d b6 21 21 00 	cmp    %r13d,0x2121b6(%rip)        # 616f54 <numthrottles>
  404d9e:	0f 8e c5 00 00 00    	jle    404e69 <check_throttles+0x119>
  404da4:	48 83 c3 01          	add    $0x1,%rbx
  404da8:	83 7d 38 09          	cmpl   $0x9,0x38(%rbp)
  404dac:	0f 8f b7 00 00 00    	jg     404e69 <check_throttles+0x119>
	if ( match( throttles[tnum].pattern, c->hc->expnfilename ) )
  404db2:	48 8b 45 08          	mov    0x8(%rbp),%rax
  404db6:	4c 8d 24 5b          	lea    (%rbx,%rbx,2),%r12
  404dba:	41 89 dd             	mov    %ebx,%r13d
  404dbd:	41 89 de             	mov    %ebx,%r14d
  404dc0:	49 c1 e4 04          	shl    $0x4,%r12
  404dc4:	48 8b b0 f0 00 00 00 	mov    0xf0(%rax),%rsi
  404dcb:	48 8b 05 86 21 21 00 	mov    0x212186(%rip),%rax        # 616f58 <throttles>
  404dd2:	4a 8b 3c 20          	mov    (%rax,%r12,1),%rdi
  404dd6:	e8 55 98 00 00       	callq  40e630 <match>
  404ddb:	85 c0                	test   %eax,%eax
  404ddd:	74 b4                	je     404d93 <check_throttles+0x43>
	    if ( throttles[tnum].rate > throttles[tnum].max_limit * 2 )
  404ddf:	48 8b 0d 72 21 21 00 	mov    0x212172(%rip),%rcx        # 616f58 <throttles>
  404de6:	4c 01 e1             	add    %r12,%rcx
  404de9:	48 8b 41 08          	mov    0x8(%rcx),%rax
  404ded:	48 8b 51 18          	mov    0x18(%rcx),%rdx
  404df1:	48 8d 34 00          	lea    (%rax,%rax,1),%rsi
  404df5:	48 39 f2             	cmp    %rsi,%rdx
  404df8:	0f 8f ba 00 00 00    	jg     404eb8 <check_throttles+0x168>
	    if ( throttles[tnum].rate < throttles[tnum].min_limit )
  404dfe:	48 8b 79 10          	mov    0x10(%rcx),%rdi
  404e02:	48 39 fa             	cmp    %rdi,%rdx
  404e05:	0f 8c ad 00 00 00    	jl     404eb8 <check_throttles+0x168>
	    if ( throttles[tnum].num_sending < 0 )
  404e0b:	8b 71 28             	mov    0x28(%rcx),%esi
  404e0e:	85 f6                	test   %esi,%esi
  404e10:	78 6e                	js     404e80 <check_throttles+0x130>
  404e12:	83 c6 01             	add    $0x1,%esi
  404e15:	48 99                	cqto   
  404e17:	4c 63 c6             	movslq %esi,%r8
  404e1a:	49 f7 f8             	idiv   %r8
	    c->tnums[c->numtnums++] = tnum;
  404e1d:	48 63 55 38          	movslq 0x38(%rbp),%rdx
  404e21:	44 8d 42 01          	lea    0x1(%rdx),%r8d
  404e25:	44 89 45 38          	mov    %r8d,0x38(%rbp)
  404e29:	44 89 74 95 10       	mov    %r14d,0x10(%rbp,%rdx,4)
	    if ( c->max_limit == THROTTLE_NOLIMIT )
  404e2e:	48 8b 55 40          	mov    0x40(%rbp),%rdx
	    ++throttles[tnum].num_sending;
  404e32:	89 71 28             	mov    %esi,0x28(%rcx)
	    if ( c->max_limit == THROTTLE_NOLIMIT )
  404e35:	48 83 fa ff          	cmp    $0xffffffffffffffff,%rdx
  404e39:	74 07                	je     404e42 <check_throttles+0xf2>
		c->max_limit = MIN( c->max_limit, l );
  404e3b:	48 39 d0             	cmp    %rdx,%rax
  404e3e:	48 0f 4f c2          	cmovg  %rdx,%rax
  404e42:	48 89 45 40          	mov    %rax,0x40(%rbp)
	    if ( c->min_limit == THROTTLE_NOLIMIT )
  404e46:	48 8b 45 48          	mov    0x48(%rbp),%rax
  404e4a:	48 83 f8 ff          	cmp    $0xffffffffffffffff,%rax
  404e4e:	0f 85 34 ff ff ff    	jne    404d88 <check_throttles+0x38>
    for ( tnum = 0; tnum < numthrottles && c->numtnums < MAXTHROTTLENUMS;
  404e54:	41 83 c5 01          	add    $0x1,%r13d
  404e58:	44 39 2d f5 20 21 00 	cmp    %r13d,0x2120f5(%rip)        # 616f54 <numthrottles>
		c->min_limit = l;
  404e5f:	48 89 7d 48          	mov    %rdi,0x48(%rbp)
    for ( tnum = 0; tnum < numthrottles && c->numtnums < MAXTHROTTLENUMS;
  404e63:	0f 8f 3b ff ff ff    	jg     404da4 <check_throttles+0x54>
    }
  404e69:	5b                   	pop    %rbx
    return 1;
  404e6a:	b8 01 00 00 00       	mov    $0x1,%eax
    }
  404e6f:	5d                   	pop    %rbp
  404e70:	41 5c                	pop    %r12
  404e72:	41 5d                	pop    %r13
  404e74:	41 5e                	pop    %r14
  404e76:	c3                   	retq   
  404e77:	66 0f 1f 84 00 00 00 	nopw   0x0(%rax,%rax,1)
  404e7e:	00 00 
		syslog( LOG_ERR, "throttle sending count was negative - shouldn't happen!" );
  404e80:	be 58 eb 40 00       	mov    $0x40eb58,%esi
  404e85:	bf 03 00 00 00       	mov    $0x3,%edi
  404e8a:	31 c0                	xor    %eax,%eax
  404e8c:	e8 8f d7 ff ff       	callq  402620 <syslog@plt>
		throttles[tnum].num_sending = 0;
  404e91:	48 8b 0d c0 20 21 00 	mov    0x2120c0(%rip),%rcx        # 616f58 <throttles>
  404e98:	be 01 00 00 00       	mov    $0x1,%esi
  404e9d:	4c 01 e1             	add    %r12,%rcx
  404ea0:	48 8b 41 08          	mov    0x8(%rcx),%rax
  404ea4:	48 8b 79 10          	mov    0x10(%rcx),%rdi
  404ea8:	c7 41 28 00 00 00 00 	movl   $0x0,0x28(%rcx)
  404eaf:	e9 69 ff ff ff       	jmpq   404e1d <check_throttles+0xcd>
  404eb4:	0f 1f 40 00          	nopl   0x0(%rax)
    }
  404eb8:	5b                   	pop    %rbx
		return 0;
  404eb9:	31 c0                	xor    %eax,%eax
    }
  404ebb:	5d                   	pop    %rbp
  404ebc:	41 5c                	pop    %r12
  404ebe:	41 5d                	pop    %r13
  404ec0:	41 5e                	pop    %r14
  404ec2:	c3                   	retq   
    return 1;
  404ec3:	b8 01 00 00 00       	mov    $0x1,%eax
    }
  404ec8:	c3                   	retq   
  404ec9:	0f 1f 80 00 00 00 00 	nopl   0x0(%rax)

0000000000404ed0 <shut_down>:
    {
  404ed0:	41 54                	push   %r12
    (void) gettimeofday( &tv, (struct timezone*) 0 );
  404ed2:	31 f6                	xor    %esi,%esi
    {
  404ed4:	55                   	push   %rbp
  404ed5:	31 ed                	xor    %ebp,%ebp
  404ed7:	53                   	push   %rbx
  404ed8:	31 db                	xor    %ebx,%ebx
  404eda:	48 83 ec 10          	sub    $0x10,%rsp
    (void) gettimeofday( &tv, (struct timezone*) 0 );
  404ede:	48 89 e7             	mov    %rsp,%rdi
  404ee1:	e8 1a d5 ff ff       	callq  402400 <gettimeofday@plt>
    logstats( &tv );
  404ee6:	48 89 e7             	mov    %rsp,%rdi
  404ee9:	e8 02 ea ff ff       	callq  4038f0 <logstats>
    for ( cnum = 0; cnum < max_connects; ++cnum )
  404eee:	8b 15 4c 20 21 00    	mov    0x21204c(%rip),%edx        # 616f40 <max_connects>
  404ef4:	85 d2                	test   %edx,%edx
  404ef6:	7f 48                	jg     404f40 <shut_down+0x70>
  404ef8:	eb 76                	jmp    404f70 <shut_down+0xa0>
  404efa:	66 0f 1f 44 00 00    	nopw   0x0(%rax,%rax,1)
	if ( connects[cnum].hc != (httpd_conn*) 0 )
  404f00:	48 85 ff             	test   %rdi,%rdi
  404f03:	74 29                	je     404f2e <shut_down+0x5e>
	    httpd_destroy_conn( connects[cnum].hc );
  404f05:	e8 16 3f 00 00       	callq  408e20 <httpd_destroy_conn>
	    free( (void*) connects[cnum].hc );
  404f0a:	4c 8b 25 37 20 21 00 	mov    0x212037(%rip),%r12        # 616f48 <connects>
  404f11:	49 01 dc             	add    %rbx,%r12
  404f14:	49 8b 7c 24 08       	mov    0x8(%r12),%rdi
  404f19:	e8 c2 d2 ff ff       	callq  4021e0 <free@plt>
	    --httpd_conn_count;
  404f1e:	83 2d 13 20 21 00 01 	subl   $0x1,0x212013(%rip)        # 616f38 <httpd_conn_count>
	    connects[cnum].hc = (httpd_conn*) 0;
  404f25:	49 c7 44 24 08 00 00 	movq   $0x0,0x8(%r12)
  404f2c:	00 00 
    for ( cnum = 0; cnum < max_connects; ++cnum )
  404f2e:	83 c5 01             	add    $0x1,%ebp
  404f31:	48 81 c3 90 00 00 00 	add    $0x90,%rbx
  404f38:	39 2d 02 20 21 00    	cmp    %ebp,0x212002(%rip)        # 616f40 <max_connects>
  404f3e:	7e 30                	jle    404f70 <shut_down+0xa0>
	if ( connects[cnum].conn_state != CNST_FREE )
  404f40:	48 8b 05 01 20 21 00 	mov    0x212001(%rip),%rax        # 616f48 <connects>
  404f47:	48 01 d8             	add    %rbx,%rax
  404f4a:	48 8b 78 08          	mov    0x8(%rax),%rdi
  404f4e:	8b 00                	mov    (%rax),%eax
  404f50:	85 c0                	test   %eax,%eax
  404f52:	74 ac                	je     404f00 <shut_down+0x30>
	    httpd_close_conn( connects[cnum].hc, &tv );
  404f54:	48 89 e6             	mov    %rsp,%rsi
  404f57:	e8 b4 56 00 00       	callq  40a610 <httpd_close_conn>
  404f5c:	48 8b 05 e5 1f 21 00 	mov    0x211fe5(%rip),%rax        # 616f48 <connects>
  404f63:	48 8b 7c 18 08       	mov    0x8(%rax,%rbx,1),%rdi
  404f68:	eb 96                	jmp    404f00 <shut_down+0x30>
  404f6a:	66 0f 1f 44 00 00    	nopw   0x0(%rax,%rax,1)
    if ( hs != (httpd_server*) 0 )
  404f70:	48 8b 1d b9 1f 21 00 	mov    0x211fb9(%rip),%rbx        # 616f30 <hs>
  404f77:	48 85 db             	test   %rbx,%rbx
  404f7a:	74 23                	je     404f9f <shut_down+0xcf>
	hs = (httpd_server*) 0;
  404f7c:	48 c7 05 a9 1f 21 00 	movq   $0x0,0x211fa9(%rip)        # 616f30 <hs>
  404f83:	00 00 00 00 
	if ( ths->listen4_fd != -1 )
  404f87:	8b 7b 48             	mov    0x48(%rbx),%edi
  404f8a:	83 ff ff             	cmp    $0xffffffff,%edi
  404f8d:	75 51                	jne    404fe0 <shut_down+0x110>
	if ( ths->listen6_fd != -1 )
  404f8f:	8b 7b 4c             	mov    0x4c(%rbx),%edi
  404f92:	83 ff ff             	cmp    $0xffffffff,%edi
  404f95:	75 39                	jne    404fd0 <shut_down+0x100>
	httpd_terminate( ths );
  404f97:	48 89 df             	mov    %rbx,%rdi
  404f9a:	e8 f1 1f 00 00       	callq  406f90 <httpd_terminate>
    mmc_destroy();
  404f9f:	e8 8c 85 00 00       	callq  40d530 <mmc_destroy>
    tmr_destroy();
  404fa4:	e8 57 8c 00 00       	callq  40dc00 <tmr_destroy>
    free( (void*) connects );
  404fa9:	48 8b 3d 98 1f 21 00 	mov    0x211f98(%rip),%rdi        # 616f48 <connects>
  404fb0:	e8 2b d2 ff ff       	callq  4021e0 <free@plt>
    if ( throttles != (throttletab*) 0 )
  404fb5:	48 8b 3d 9c 1f 21 00 	mov    0x211f9c(%rip),%rdi        # 616f58 <throttles>
  404fbc:	48 85 ff             	test   %rdi,%rdi
  404fbf:	74 05                	je     404fc6 <shut_down+0xf6>
	free( (void*) throttles );
  404fc1:	e8 1a d2 ff ff       	callq  4021e0 <free@plt>
    }
  404fc6:	48 83 c4 10          	add    $0x10,%rsp
  404fca:	5b                   	pop    %rbx
  404fcb:	5d                   	pop    %rbp
  404fcc:	41 5c                	pop    %r12
  404fce:	c3                   	retq   
  404fcf:	90                   	nop
	    fdwatch_del_fd( ths->listen6_fd );
  404fd0:	e8 3b 10 00 00       	callq  406010 <fdwatch_del_fd>
  404fd5:	eb c0                	jmp    404f97 <shut_down+0xc7>
  404fd7:	66 0f 1f 84 00 00 00 	nopw   0x0(%rax,%rax,1)
  404fde:	00 00 
	    fdwatch_del_fd( ths->listen4_fd );
  404fe0:	e8 2b 10 00 00       	callq  406010 <fdwatch_del_fd>
	if ( ths->listen6_fd != -1 )
  404fe5:	8b 7b 4c             	mov    0x4c(%rbx),%edi
  404fe8:	83 ff ff             	cmp    $0xffffffff,%edi
  404feb:	74 aa                	je     404f97 <shut_down+0xc7>
  404fed:	eb e1                	jmp    404fd0 <shut_down+0x100>
  404fef:	90                   	nop

0000000000404ff0 <handle_usr1>:
    if ( num_connects == 0 )
  404ff0:	8b 05 4e 1f 21 00    	mov    0x211f4e(%rip),%eax        # 616f44 <num_connects>
  404ff6:	85 c0                	test   %eax,%eax
  404ff8:	74 0e                	je     405008 <handle_usr1+0x18>
    got_usr1 = 1;
  404ffa:	c7 05 24 1f 21 00 01 	movl   $0x1,0x211f24(%rip)        # 616f28 <got_usr1>
  405001:	00 00 00 
  405004:	c3                   	retq   
  405005:	0f 1f 00             	nopl   (%rax)
    {
  405008:	48 83 ec 08          	sub    $0x8,%rsp
	shut_down();
  40500c:	e8 bf fe ff ff       	callq  404ed0 <shut_down>
	syslog( LOG_NOTICE, "exiting" );
  405011:	bf 05 00 00 00       	mov    $0x5,%edi
  405016:	be 54 f0 40 00       	mov    $0x40f054,%esi
  40501b:	31 c0                	xor    %eax,%eax
  40501d:	e8 fe d5 ff ff       	callq  402620 <syslog@plt>
	closelog();
  405022:	e8 d9 d1 ff ff       	callq  402200 <closelog@plt>
	exit( 0 );
  405027:	31 ff                	xor    %edi,%edi
  405029:	e8 d2 d7 ff ff       	callq  402800 <exit@plt>
  40502e:	66 90                	xchg   %ax,%ax

0000000000405030 <handle_term>:
    {
  405030:	53                   	push   %rbx
  405031:	89 fb                	mov    %edi,%ebx
    shut_down();
  405033:	e8 98 fe ff ff       	callq  404ed0 <shut_down>
    syslog( LOG_NOTICE, "exiting due to signal %d", sig );
  405038:	bf 05 00 00 00       	mov    $0x5,%edi
  40503d:	89 da                	mov    %ebx,%edx
  40503f:	31 c0                	xor    %eax,%eax
  405041:	be 5c f0 40 00       	mov    $0x40f05c,%esi
  405046:	e8 d5 d5 ff ff       	callq  402620 <syslog@plt>
    closelog();
  40504b:	e8 b0 d1 ff ff       	callq  402200 <closelog@plt>
    exit( 1 );
  405050:	bf 01 00 00 00       	mov    $0x1,%edi
  405055:	e8 a6 d7 ff ff       	callq  402800 <exit@plt>
  40505a:	66 0f 1f 44 00 00    	nopw   0x0(%rax,%rax,1)

0000000000405060 <clear_throttles.isra.0>:
    for ( tind = 0; tind < c->numtnums; ++tind )
  405060:	8b 47 38             	mov    0x38(%rdi),%eax
  405063:	85 c0                	test   %eax,%eax
  405065:	7e 32                	jle    405099 <clear_throttles.isra.0+0x39>
  405067:	83 e8 01             	sub    $0x1,%eax
	--throttles[c->tnums[tind]].num_sending;
  40506a:	48 8b 0d e7 1e 21 00 	mov    0x211ee7(%rip),%rcx        # 616f58 <throttles>
  405071:	48 8d 57 10          	lea    0x10(%rdi),%rdx
  405075:	48 8d 74 87 14       	lea    0x14(%rdi,%rax,4),%rsi
  40507a:	66 0f 1f 44 00 00    	nopw   0x0(%rax,%rax,1)
  405080:	48 63 02             	movslq (%rdx),%rax
  405083:	48 83 c2 04          	add    $0x4,%rdx
  405087:	48 8d 04 40          	lea    (%rax,%rax,2),%rax
  40508b:	48 c1 e0 04          	shl    $0x4,%rax
  40508f:	83 6c 01 28 01       	subl   $0x1,0x28(%rcx,%rax,1)
    for ( tind = 0; tind < c->numtnums; ++tind )
  405094:	48 39 f2             	cmp    %rsi,%rdx
  405097:	75 e7                	jne    405080 <clear_throttles.isra.0+0x20>
    }
  405099:	c3                   	retq   
  40509a:	66 0f 1f 44 00 00    	nopw   0x0(%rax,%rax,1)

00000000004050a0 <really_clear_connection>:
    {
  4050a0:	53                   	push   %rbx
  4050a1:	48 89 fb             	mov    %rdi,%rbx
  4050a4:	48 83 ec 10          	sub    $0x10,%rsp
    stats_bytes += c->hc->bytes_sent;
  4050a8:	48 8b 7f 08          	mov    0x8(%rdi),%rdi
  4050ac:	48 8b 87 c8 00 00 00 	mov    0xc8(%rdi),%rax
  4050b3:	48 01 05 06 27 21 00 	add    %rax,0x212706(%rip)        # 6177c0 <stats_bytes>
    if ( c->conn_state != CNST_PAUSING )
  4050ba:	83 3b 03             	cmpl   $0x3,(%rbx)
  4050bd:	74 19                	je     4050d8 <really_clear_connection+0x38>
	fdwatch_del_fd( c->hc->conn_fd );
  4050bf:	8b bf c0 02 00 00    	mov    0x2c0(%rdi),%edi
  4050c5:	48 89 74 24 08       	mov    %rsi,0x8(%rsp)
  4050ca:	e8 41 0f 00 00       	callq  406010 <fdwatch_del_fd>
  4050cf:	48 8b 7b 08          	mov    0x8(%rbx),%rdi
  4050d3:	48 8b 74 24 08       	mov    0x8(%rsp),%rsi
    httpd_close_conn( c->hc, tvP );
  4050d8:	e8 33 55 00 00       	callq  40a610 <httpd_close_conn>
    clear_throttles( c, tvP );
  4050dd:	48 89 df             	mov    %rbx,%rdi
  4050e0:	e8 7b ff ff ff       	callq  405060 <clear_throttles.isra.0>
    if ( c->linger_timer != (Timer*) 0 )
  4050e5:	48 8b 7b 68          	mov    0x68(%rbx),%rdi
  4050e9:	48 85 ff             	test   %rdi,%rdi
  4050ec:	74 0d                	je     4050fb <really_clear_connection+0x5b>
	tmr_cancel( c->linger_timer );
  4050ee:	e8 1d 89 00 00       	callq  40da10 <tmr_cancel>
	c->linger_timer = 0;
  4050f3:	48 c7 43 68 00 00 00 	movq   $0x0,0x68(%rbx)
  4050fa:	00 
    c->next_free_connect = first_free_connect;
  4050fb:	8b 05 3b 1e 21 00    	mov    0x211e3b(%rip),%eax        # 616f3c <first_free_connect>
    c->conn_state = CNST_FREE;
  405101:	c7 03 00 00 00 00    	movl   $0x0,(%rbx)
    --num_connects;
  405107:	83 2d 36 1e 21 00 01 	subl   $0x1,0x211e36(%rip)        # 616f44 <num_connects>
    c->next_free_connect = first_free_connect;
  40510e:	89 43 04             	mov    %eax,0x4(%rbx)
    first_free_connect = c - connects;	/* division by sizeof is implied */
  405111:	48 2b 1d 30 1e 21 00 	sub    0x211e30(%rip),%rbx        # 616f48 <connects>
  405118:	48 b8 39 8e e3 38 8e 	movabs $0x8e38e38e38e38e39,%rax
  40511f:	e3 38 8e 
  405122:	48 c1 fb 04          	sar    $0x4,%rbx
  405126:	48 0f af d8          	imul   %rax,%rbx
  40512a:	89 1d 0c 1e 21 00    	mov    %ebx,0x211e0c(%rip)        # 616f3c <first_free_connect>
    }
  405130:	48 83 c4 10          	add    $0x10,%rsp
  405134:	5b                   	pop    %rbx
  405135:	c3                   	retq   
  405136:	66 2e 0f 1f 84 00 00 	nopw   %cs:0x0(%rax,%rax,1)
  40513d:	00 00 00 

0000000000405140 <clear_connection>:
    {
  405140:	55                   	push   %rbp
  405141:	48 89 f5             	mov    %rsi,%rbp
  405144:	53                   	push   %rbx
  405145:	48 89 fb             	mov    %rdi,%rbx
  405148:	48 83 ec 08          	sub    $0x8,%rsp
    if ( c->wakeup_timer != (Timer*) 0 )
  40514c:	48 8b 7f 60          	mov    0x60(%rdi),%rdi
  405150:	48 85 ff             	test   %rdi,%rdi
  405153:	74 0d                	je     405162 <clear_connection+0x22>
	tmr_cancel( c->wakeup_timer );
  405155:	e8 b6 88 00 00       	callq  40da10 <tmr_cancel>
	c->wakeup_timer = 0;
  40515a:	48 c7 43 60 00 00 00 	movq   $0x0,0x60(%rbx)
  405161:	00 
    if ( c->conn_state == CNST_LINGERING )
  405162:	8b 03                	mov    (%rbx),%eax
  405164:	83 f8 04             	cmp    $0x4,%eax
  405167:	0f 84 9b 00 00 00    	je     405208 <clear_connection+0xc8>
    if ( c->hc->should_linger )
  40516d:	48 8b 53 08          	mov    0x8(%rbx),%rdx
  405171:	8b 8a 2c 02 00 00    	mov    0x22c(%rdx),%ecx
  405177:	85 c9                	test   %ecx,%ecx
  405179:	0f 84 a8 00 00 00    	je     405227 <clear_connection+0xe7>
	if ( c->conn_state != CNST_PAUSING )
  40517f:	8b ba c0 02 00 00    	mov    0x2c0(%rdx),%edi
  405185:	83 f8 03             	cmp    $0x3,%eax
  405188:	75 66                	jne    4051f0 <clear_connection+0xb0>
	c->conn_state = CNST_LINGERING;
  40518a:	c7 03 04 00 00 00    	movl   $0x4,(%rbx)
	shutdown( c->hc->conn_fd, SHUT_WR );
  405190:	be 01 00 00 00       	mov    $0x1,%esi
  405195:	e8 b6 d1 ff ff       	callq  402350 <shutdown@plt>
	fdwatch_add_fd( c->hc->conn_fd, c, FDW_READ );
  40519a:	48 8b 43 08          	mov    0x8(%rbx),%rax
  40519e:	31 d2                	xor    %edx,%edx
  4051a0:	48 89 de             	mov    %rbx,%rsi
  4051a3:	8b b8 c0 02 00 00    	mov    0x2c0(%rax),%edi
  4051a9:	e8 f2 0d 00 00       	callq  405fa0 <fdwatch_add_fd>
	if ( c->linger_timer != (Timer*) 0 )
  4051ae:	48 83 7b 68 00       	cmpq   $0x0,0x68(%rbx)
  4051b3:	74 11                	je     4051c6 <clear_connection+0x86>
	    syslog( LOG_ERR, "replacing non-null linger_timer!" );
  4051b5:	be 90 eb 40 00       	mov    $0x40eb90,%esi
  4051ba:	bf 03 00 00 00       	mov    $0x3,%edi
  4051bf:	31 c0                	xor    %eax,%eax
  4051c1:	e8 5a d4 ff ff       	callq  402620 <syslog@plt>
	c->linger_timer = tmr_create(
  4051c6:	45 31 c0             	xor    %r8d,%r8d
  4051c9:	b9 f4 01 00 00       	mov    $0x1f4,%ecx
  4051ce:	48 89 da             	mov    %rbx,%rdx
  4051d1:	be 30 59 40 00       	mov    $0x405930,%esi
  4051d6:	48 89 ef             	mov    %rbp,%rdi
  4051d9:	e8 72 8b 00 00       	callq  40dd50 <tmr_create>
  4051de:	48 89 43 68          	mov    %rax,0x68(%rbx)
	if ( c->linger_timer == (Timer*) 0 )
  4051e2:	48 85 c0             	test   %rax,%rax
  4051e5:	74 51                	je     405238 <clear_connection+0xf8>
    }
  4051e7:	48 83 c4 08          	add    $0x8,%rsp
  4051eb:	5b                   	pop    %rbx
  4051ec:	5d                   	pop    %rbp
  4051ed:	c3                   	retq   
  4051ee:	66 90                	xchg   %ax,%ax
	    fdwatch_del_fd( c->hc->conn_fd );
  4051f0:	e8 1b 0e 00 00       	callq  406010 <fdwatch_del_fd>
  4051f5:	48 8b 43 08          	mov    0x8(%rbx),%rax
  4051f9:	8b b8 c0 02 00 00    	mov    0x2c0(%rax),%edi
  4051ff:	eb 89                	jmp    40518a <clear_connection+0x4a>
  405201:	0f 1f 80 00 00 00 00 	nopl   0x0(%rax)
	tmr_cancel( c->linger_timer );
  405208:	48 8b 7b 68          	mov    0x68(%rbx),%rdi
  40520c:	e8 ff 87 00 00       	callq  40da10 <tmr_cancel>
	c->hc->should_linger = 0;
  405211:	48 8b 43 08          	mov    0x8(%rbx),%rax
	c->linger_timer = (Timer*) 0;
  405215:	48 c7 43 68 00 00 00 	movq   $0x0,0x68(%rbx)
  40521c:	00 
	c->hc->should_linger = 0;
  40521d:	c7 80 2c 02 00 00 00 	movl   $0x0,0x22c(%rax)
  405224:	00 00 00 
    }
  405227:	48 83 c4 08          	add    $0x8,%rsp
	really_clear_connection( c, tvP );
  40522b:	48 89 ee             	mov    %rbp,%rsi
  40522e:	48 89 df             	mov    %rbx,%rdi
    }
  405231:	5b                   	pop    %rbx
  405232:	5d                   	pop    %rbp
	really_clear_connection( c, tvP );
  405233:	e9 68 fe ff ff       	jmpq   4050a0 <really_clear_connection>
	    syslog( LOG_CRIT, "tmr_create(linger_clear_connection) failed" );
  405238:	bf 02 00 00 00       	mov    $0x2,%edi
  40523d:	be b8 eb 40 00       	mov    $0x40ebb8,%esi
  405242:	e8 d9 d3 ff ff       	callq  402620 <syslog@plt>
	    exit( 1 );
  405247:	bf 01 00 00 00       	mov    $0x1,%edi
  40524c:	e8 af d5 ff ff       	callq  402800 <exit@plt>
  405251:	0f 1f 44 00 00       	nopl   0x0(%rax,%rax,1)
  405256:	66 2e 0f 1f 84 00 00 	nopw   %cs:0x0(%rax,%rax,1)
  40525d:	00 00 00 

0000000000405260 <finish_connection>:
    {
  405260:	55                   	push   %rbp
  405261:	48 89 f5             	mov    %rsi,%rbp
  405264:	53                   	push   %rbx
  405265:	48 89 fb             	mov    %rdi,%rbx
  405268:	48 83 ec 08          	sub    $0x8,%rsp
    httpd_write_response( c->hc );
  40526c:	48 8b 7f 08          	mov    0x8(%rdi),%rdi
  405270:	e8 0b 60 00 00       	callq  40b280 <httpd_write_response>
    }
  405275:	48 83 c4 08          	add    $0x8,%rsp
    clear_connection( c, tvP );
  405279:	48 89 ee             	mov    %rbp,%rsi
  40527c:	48 89 df             	mov    %rbx,%rdi
    }
  40527f:	5b                   	pop    %rbx
  405280:	5d                   	pop    %rbp
    clear_connection( c, tvP );
  405281:	e9 ba fe ff ff       	jmpq   405140 <clear_connection>
  405286:	66 2e 0f 1f 84 00 00 	nopw   %cs:0x0(%rax,%rax,1)
  40528d:	00 00 00 

0000000000405290 <handle_read>:
    {
  405290:	41 54                	push   %r12
  405292:	49 89 f4             	mov    %rsi,%r12
  405295:	55                   	push   %rbp
  405296:	48 89 fd             	mov    %rdi,%rbp
  405299:	53                   	push   %rbx
    httpd_conn* hc = c->hc;
  40529a:	48 8b 5f 08          	mov    0x8(%rdi),%rbx
    if ( hc->read_idx >= hc->read_size )
  40529e:	48 8b b3 a0 00 00 00 	mov    0xa0(%rbx),%rsi
  4052a5:	48 8b 93 98 00 00 00 	mov    0x98(%rbx),%rdx
  4052ac:	48 39 d6             	cmp    %rdx,%rsi
  4052af:	72 35                	jb     4052e6 <handle_read+0x56>
	if ( hc->read_size > 5000 )
  4052b1:	48 81 fa 88 13 00 00 	cmp    $0x1388,%rdx
  4052b8:	0f 87 84 00 00 00    	ja     405342 <handle_read+0xb2>
	httpd_realloc_str(
  4052be:	48 81 c2 e8 03 00 00 	add    $0x3e8,%rdx
  4052c5:	48 8d b3 98 00 00 00 	lea    0x98(%rbx),%rsi
  4052cc:	48 8d bb 90 00 00 00 	lea    0x90(%rbx),%rdi
  4052d3:	e8 98 1d 00 00       	callq  407070 <httpd_realloc_str>
  4052d8:	48 8b 93 98 00 00 00 	mov    0x98(%rbx),%rdx
  4052df:	48 8b b3 a0 00 00 00 	mov    0xa0(%rbx),%rsi
    sz = read(
  4052e6:	8b bb c0 02 00 00    	mov    0x2c0(%rbx),%edi
  4052ec:	48 29 f2             	sub    %rsi,%rdx
	hc->conn_fd, &(hc->read_buf[hc->read_idx]),
  4052ef:	48 03 b3 90 00 00 00 	add    0x90(%rbx),%rsi
    sz = read(
  4052f6:	e8 c5 d1 ff ff       	callq  4024c0 <read@plt>
    if ( sz == 0 )
  4052fb:	85 c0                	test   %eax,%eax
  4052fd:	74 43                	je     405342 <handle_read+0xb2>
    if ( sz < 0 )
  4052ff:	79 1f                	jns    405320 <handle_read+0x90>
	if ( errno == EINTR || errno == EAGAIN || errno == EWOULDBLOCK )
  405301:	e8 2a cf ff ff       	callq  402230 <__errno_location@plt>
  405306:	8b 00                	mov    (%rax),%eax
  405308:	83 f8 04             	cmp    $0x4,%eax
  40530b:	74 05                	je     405312 <handle_read+0x82>
  40530d:	83 f8 0b             	cmp    $0xb,%eax
  405310:	75 30                	jne    405342 <handle_read+0xb2>
    }
  405312:	5b                   	pop    %rbx
  405313:	5d                   	pop    %rbp
  405314:	41 5c                	pop    %r12
  405316:	c3                   	retq   
  405317:	66 0f 1f 84 00 00 00 	nopw   0x0(%rax,%rax,1)
  40531e:	00 00 
    hc->read_idx += sz;
  405320:	48 98                	cltq   
  405322:	48 01 83 a0 00 00 00 	add    %rax,0xa0(%rbx)
    c->active_at = tvP->tv_sec;
  405329:	49 8b 04 24          	mov    (%r12),%rax
    switch ( httpd_got_request( hc ) )
  40532d:	48 89 df             	mov    %rbx,%rdi
    c->active_at = tvP->tv_sec;
  405330:	48 89 45 58          	mov    %rax,0x58(%rbp)
    switch ( httpd_got_request( hc ) )
  405334:	e8 97 37 00 00       	callq  408ad0 <httpd_got_request>
  405339:	85 c0                	test   %eax,%eax
  40533b:	74 d5                	je     405312 <handle_read+0x82>
  40533d:	83 f8 02             	cmp    $0x2,%eax
  405340:	75 36                	jne    405378 <handle_read+0xe8>
	httpd_send_err( hc, 400, httpd_err400title, "", httpd_err400form, "" );
  405342:	41 b9 09 f6 40 00    	mov    $0x40f609,%r9d
  405348:	4c 8b 05 31 19 21 00 	mov    0x211931(%rip),%r8        # 616c80 <httpd_err400form>
  40534f:	be 90 01 00 00       	mov    $0x190,%esi
  405354:	48 89 df             	mov    %rbx,%rdi
  405357:	48 8b 15 2a 19 21 00 	mov    0x21192a(%rip),%rdx        # 616c88 <httpd_err400title>
  40535e:	4c 89 c9             	mov    %r9,%rcx
  405361:	e8 2a 31 00 00       	callq  408490 <httpd_send_err>
    }
  405366:	5b                   	pop    %rbx
	finish_connection( c, tvP );
  405367:	4c 89 e6             	mov    %r12,%rsi
  40536a:	48 89 ef             	mov    %rbp,%rdi
    }
  40536d:	5d                   	pop    %rbp
  40536e:	41 5c                	pop    %r12
	finish_connection( c, tvP );
  405370:	e9 eb fe ff ff       	jmpq   405260 <finish_connection>
  405375:	0f 1f 00             	nopl   (%rax)
    if ( httpd_parse_request( hc ) < 0 )
  405378:	48 89 df             	mov    %rbx,%rdi
  40537b:	e8 30 43 00 00       	callq  4096b0 <httpd_parse_request>
  405380:	85 c0                	test   %eax,%eax
  405382:	78 e2                	js     405366 <handle_read+0xd6>
    if ( ! check_throttles( c ) )
  405384:	48 89 ef             	mov    %rbp,%rdi
  405387:	e8 c4 f9 ff ff       	callq  404d50 <check_throttles>
  40538c:	85 c0                	test   %eax,%eax
  40538e:	0f 84 9c 00 00 00    	je     405430 <handle_read+0x1a0>
    if ( httpd_start_request( hc, tvP ) < 0 )
  405394:	4c 89 e6             	mov    %r12,%rsi
  405397:	48 89 df             	mov    %rbx,%rdi
  40539a:	e8 a1 78 00 00       	callq  40cc40 <httpd_start_request>
  40539f:	85 c0                	test   %eax,%eax
  4053a1:	78 c3                	js     405366 <handle_read+0xd6>
    if ( hc->got_range )
  4053a3:	8b 83 10 02 00 00    	mov    0x210(%rbx),%eax
  4053a9:	85 c0                	test   %eax,%eax
  4053ab:	0f 84 af 00 00 00    	je     405460 <handle_read+0x1d0>
	c->next_byte_index = hc->first_byte_index;
  4053b1:	48 8b 83 18 02 00 00 	mov    0x218(%rbx),%rax
  4053b8:	48 89 85 88 00 00 00 	mov    %rax,0x88(%rbp)
	c->end_byte_index = hc->last_byte_index + 1;
  4053bf:	48 8b 83 20 02 00 00 	mov    0x220(%rbx),%rax
  4053c6:	48 83 c0 01          	add    $0x1,%rax
  4053ca:	48 89 85 80 00 00 00 	mov    %rax,0x80(%rbp)
    if ( hc->file_address == (char*) 0 )
  4053d1:	48 83 bb c8 02 00 00 	cmpq   $0x0,0x2c8(%rbx)
  4053d8:	00 
  4053d9:	0f 84 a0 00 00 00    	je     40547f <handle_read+0x1ef>
    if ( c->next_byte_index >= c->end_byte_index )
  4053df:	48 8b 85 80 00 00 00 	mov    0x80(%rbp),%rax
  4053e6:	48 39 85 88 00 00 00 	cmp    %rax,0x88(%rbp)
  4053ed:	0f 8d 73 ff ff ff    	jge    405366 <handle_read+0xd6>
    c->started_at = tvP->tv_sec;
  4053f3:	49 8b 04 24          	mov    (%r12),%rax
    c->conn_state = CNST_SENDING;
  4053f7:	c7 45 00 02 00 00 00 	movl   $0x2,0x0(%rbp)
    c->wouldblock_delay = 0;
  4053fe:	48 c7 45 70 00 00 00 	movq   $0x0,0x70(%rbp)
  405405:	00 
    fdwatch_del_fd( hc->conn_fd );
  405406:	8b bb c0 02 00 00    	mov    0x2c0(%rbx),%edi
    c->started_at = tvP->tv_sec;
  40540c:	48 89 45 50          	mov    %rax,0x50(%rbp)
    fdwatch_del_fd( hc->conn_fd );
  405410:	e8 fb 0b 00 00       	callq  406010 <fdwatch_del_fd>
    fdwatch_add_fd( hc->conn_fd, c, FDW_WRITE );
  405415:	8b bb c0 02 00 00    	mov    0x2c0(%rbx),%edi
  40541b:	48 89 ee             	mov    %rbp,%rsi
    }
  40541e:	5b                   	pop    %rbx
    fdwatch_add_fd( hc->conn_fd, c, FDW_WRITE );
  40541f:	ba 01 00 00 00       	mov    $0x1,%edx
    }
  405424:	5d                   	pop    %rbp
  405425:	41 5c                	pop    %r12
    fdwatch_add_fd( hc->conn_fd, c, FDW_WRITE );
  405427:	e9 74 0b 00 00       	jmpq   405fa0 <fdwatch_add_fd>
  40542c:	0f 1f 40 00          	nopl   0x0(%rax)
	httpd_send_err(
  405430:	4c 8b 8b d0 00 00 00 	mov    0xd0(%rbx),%r9
  405437:	4c 8b 05 22 18 21 00 	mov    0x211822(%rip),%r8        # 616c60 <httpd_err503form>
  40543e:	b9 09 f6 40 00       	mov    $0x40f609,%ecx
  405443:	48 89 df             	mov    %rbx,%rdi
  405446:	48 8b 15 1b 18 21 00 	mov    0x21181b(%rip),%rdx        # 616c68 <httpd_err503title>
  40544d:	be f7 01 00 00       	mov    $0x1f7,%esi
  405452:	e8 39 30 00 00       	callq  408490 <httpd_send_err>
	finish_connection( c, tvP );
  405457:	e9 0a ff ff ff       	jmpq   405366 <handle_read+0xd6>
  40545c:	0f 1f 40 00          	nopl   0x0(%rax)
    else if ( hc->bytes_to_send < 0 )
  405460:	48 8b 83 c0 00 00 00 	mov    0xc0(%rbx),%rax
	c->end_byte_index = 0;
  405467:	ba 00 00 00 00       	mov    $0x0,%edx
  40546c:	48 85 c0             	test   %rax,%rax
  40546f:	48 0f 48 c2          	cmovs  %rdx,%rax
  405473:	48 89 85 80 00 00 00 	mov    %rax,0x80(%rbp)
  40547a:	e9 52 ff ff ff       	jmpq   4053d1 <handle_read+0x141>
	for ( tind = 0; tind < c->numtnums; ++tind )
  40547f:	8b 45 38             	mov    0x38(%rbp),%eax
  405482:	48 8b b3 c8 00 00 00 	mov    0xc8(%rbx),%rsi
  405489:	85 c0                	test   %eax,%eax
  40548b:	7e 2c                	jle    4054b9 <handle_read+0x229>
  40548d:	83 e8 01             	sub    $0x1,%eax
	    throttles[c->tnums[tind]].bytes_since_avg += hc->bytes_sent;
  405490:	48 8b 0d c1 1a 21 00 	mov    0x211ac1(%rip),%rcx        # 616f58 <throttles>
  405497:	48 8d 55 10          	lea    0x10(%rbp),%rdx
  40549b:	48 8d 7c 85 14       	lea    0x14(%rbp,%rax,4),%rdi
  4054a0:	48 63 02             	movslq (%rdx),%rax
  4054a3:	48 83 c2 04          	add    $0x4,%rdx
  4054a7:	48 8d 04 40          	lea    (%rax,%rax,2),%rax
  4054ab:	48 c1 e0 04          	shl    $0x4,%rax
  4054af:	48 01 74 01 20       	add    %rsi,0x20(%rcx,%rax,1)
	for ( tind = 0; tind < c->numtnums; ++tind )
  4054b4:	48 39 d7             	cmp    %rdx,%rdi
  4054b7:	75 e7                	jne    4054a0 <handle_read+0x210>
	c->next_byte_index = hc->bytes_sent;
  4054b9:	48 89 b5 88 00 00 00 	mov    %rsi,0x88(%rbp)
  4054c0:	e9 a1 fe ff ff       	jmpq   405366 <handle_read+0xd6>
  4054c5:	90                   	nop
  4054c6:	66 2e 0f 1f 84 00 00 	nopw   %cs:0x0(%rax,%rax,1)
  4054cd:	00 00 00 

00000000004054d0 <idle>:
    for ( cnum = 0; cnum < max_connects; ++cnum )
  4054d0:	8b 05 6a 1a 21 00    	mov    0x211a6a(%rip),%eax        # 616f40 <max_connects>
  4054d6:	85 c0                	test   %eax,%eax
  4054d8:	0f 8e 0a 01 00 00    	jle    4055e8 <idle+0x118>
    {
  4054de:	41 54                	push   %r12
  4054e0:	49 89 f4             	mov    %rsi,%r12
  4054e3:	55                   	push   %rbp
    for ( cnum = 0; cnum < max_connects; ++cnum )
  4054e4:	31 ed                	xor    %ebp,%ebp
    {
  4054e6:	53                   	push   %rbx
  4054e7:	eb 37                	jmp    405520 <idle+0x50>
  4054e9:	0f 1f 80 00 00 00 00 	nopl   0x0(%rax)
  4054f0:	85 c0                	test   %eax,%eax
  4054f2:	7e 1c                	jle    405510 <idle+0x40>
  4054f4:	83 f8 03             	cmp    $0x3,%eax
  4054f7:	7f 17                	jg     405510 <idle+0x40>
	    if ( nowP->tv_sec - c->active_at >= IDLE_SEND_TIMELIMIT )
  4054f9:	49 8b 04 24          	mov    (%r12),%rax
  4054fd:	48 2b 43 58          	sub    0x58(%rbx),%rax
  405501:	48 3d 2b 01 00 00    	cmp    $0x12b,%rax
  405507:	0f 8f a3 00 00 00    	jg     4055b0 <idle+0xe0>
  40550d:	0f 1f 00             	nopl   (%rax)
  405510:	48 83 c5 01          	add    $0x1,%rbp
    for ( cnum = 0; cnum < max_connects; ++cnum )
  405514:	39 2d 26 1a 21 00    	cmp    %ebp,0x211a26(%rip)        # 616f40 <max_connects>
  40551a:	0f 8e 86 00 00 00    	jle    4055a6 <idle+0xd6>
	c = &connects[cnum];
  405520:	48 8d 5c ed 00       	lea    0x0(%rbp,%rbp,8),%rbx
  405525:	48 c1 e3 04          	shl    $0x4,%rbx
  405529:	48 03 1d 18 1a 21 00 	add    0x211a18(%rip),%rbx        # 616f48 <connects>
	switch ( c->conn_state )
  405530:	8b 03                	mov    (%rbx),%eax
  405532:	83 f8 01             	cmp    $0x1,%eax
  405535:	75 b9                	jne    4054f0 <idle+0x20>
	    if ( nowP->tv_sec - c->active_at >= IDLE_READ_TIMELIMIT )
  405537:	49 8b 04 24          	mov    (%r12),%rax
  40553b:	48 2b 43 58          	sub    0x58(%rbx),%rax
  40553f:	48 83 f8 3b          	cmp    $0x3b,%rax
  405543:	7e cb                	jle    405510 <idle+0x40>
		syslog( LOG_INFO,
  405545:	48 8b 43 08          	mov    0x8(%rbx),%rax
  405549:	48 83 c5 01          	add    $0x1,%rbp
  40554d:	48 8d 78 10          	lea    0x10(%rax),%rdi
  405551:	e8 8a 39 00 00       	callq  408ee0 <httpd_ntoa>
  405556:	be e8 eb 40 00       	mov    $0x40ebe8,%esi
  40555b:	bf 06 00 00 00       	mov    $0x6,%edi
  405560:	48 89 c2             	mov    %rax,%rdx
  405563:	31 c0                	xor    %eax,%eax
  405565:	e8 b6 d0 ff ff       	callq  402620 <syslog@plt>
		httpd_send_err(
  40556a:	41 b9 09 f6 40 00    	mov    $0x40f609,%r9d
  405570:	48 8b 7b 08          	mov    0x8(%rbx),%rdi
  405574:	4c 8b 05 f5 16 21 00 	mov    0x2116f5(%rip),%r8        # 616c70 <httpd_err408form>
  40557b:	48 8b 15 f6 16 21 00 	mov    0x2116f6(%rip),%rdx        # 616c78 <httpd_err408title>
  405582:	4c 89 c9             	mov    %r9,%rcx
  405585:	be 98 01 00 00       	mov    $0x198,%esi
  40558a:	e8 01 2f 00 00       	callq  408490 <httpd_send_err>
		finish_connection( c, nowP );
  40558f:	4c 89 e6             	mov    %r12,%rsi
  405592:	48 89 df             	mov    %rbx,%rdi
  405595:	e8 c6 fc ff ff       	callq  405260 <finish_connection>
    for ( cnum = 0; cnum < max_connects; ++cnum )
  40559a:	39 2d a0 19 21 00    	cmp    %ebp,0x2119a0(%rip)        # 616f40 <max_connects>
  4055a0:	0f 8f 7a ff ff ff    	jg     405520 <idle+0x50>
    }
  4055a6:	5b                   	pop    %rbx
  4055a7:	5d                   	pop    %rbp
  4055a8:	41 5c                	pop    %r12
  4055aa:	c3                   	retq   
  4055ab:	0f 1f 44 00 00       	nopl   0x0(%rax,%rax,1)
		syslog( LOG_INFO,
  4055b0:	48 8b 43 08          	mov    0x8(%rbx),%rax
  4055b4:	48 8d 78 10          	lea    0x10(%rax),%rdi
  4055b8:	e8 23 39 00 00       	callq  408ee0 <httpd_ntoa>
  4055bd:	be 10 ec 40 00       	mov    $0x40ec10,%esi
  4055c2:	bf 06 00 00 00       	mov    $0x6,%edi
  4055c7:	48 89 c2             	mov    %rax,%rdx
  4055ca:	31 c0                	xor    %eax,%eax
  4055cc:	e8 4f d0 ff ff       	callq  402620 <syslog@plt>
		clear_connection( c, nowP );
  4055d1:	4c 89 e6             	mov    %r12,%rsi
  4055d4:	48 89 df             	mov    %rbx,%rdi
  4055d7:	e8 64 fb ff ff       	callq  405140 <clear_connection>
  4055dc:	e9 2f ff ff ff       	jmpq   405510 <idle+0x40>
  4055e1:	0f 1f 80 00 00 00 00 	nopl   0x0(%rax)
  4055e8:	c3                   	retq   
  4055e9:	0f 1f 80 00 00 00 00 	nopl   0x0(%rax)

00000000004055f0 <handle_send>:
    {
  4055f0:	41 55                	push   %r13
  4055f2:	b8 00 ca 9a 3b       	mov    $0x3b9aca00,%eax
  4055f7:	41 54                	push   %r12
  4055f9:	55                   	push   %rbp
  4055fa:	48 89 f5             	mov    %rsi,%rbp
  4055fd:	53                   	push   %rbx
  4055fe:	48 89 fb             	mov    %rdi,%rbx
  405601:	48 83 ec 28          	sub    $0x28,%rsp
    if ( c->max_limit == THROTTLE_NOLIMIT )
  405605:	48 8b 4f 40          	mov    0x40(%rdi),%rcx
    httpd_conn* hc = c->hc;
  405609:	4c 8b 67 08          	mov    0x8(%rdi),%r12
    if ( c->max_limit == THROTTLE_NOLIMIT )
  40560d:	48 83 f9 ff          	cmp    $0xffffffffffffffff,%rcx
  405611:	74 12                	je     405625 <handle_send+0x35>
	max_bytes = c->max_limit / 4;	/* send at most 1/4 seconds worth */
  405613:	48 85 c9             	test   %rcx,%rcx
  405616:	48 8d 51 03          	lea    0x3(%rcx),%rdx
  40561a:	48 0f 49 d1          	cmovns %rcx,%rdx
  40561e:	48 89 d0             	mov    %rdx,%rax
  405621:	48 c1 f8 02          	sar    $0x2,%rax
    if ( hc->responselen == 0 )
  405625:	48 8b 93 88 00 00 00 	mov    0x88(%rbx),%rdx
  40562c:	48 8b bb 80 00 00 00 	mov    0x80(%rbx),%rdi
  405633:	49 8b b4 24 c8 02 00 	mov    0x2c8(%r12),%rsi
  40563a:	00 
  40563b:	49 8b 8c 24 d8 01 00 	mov    0x1d8(%r12),%rcx
  405642:	00 
  405643:	48 29 d7             	sub    %rdx,%rdi
  405646:	48 01 d6             	add    %rdx,%rsi
  405649:	48 89 fa             	mov    %rdi,%rdx
  40564c:	48 39 c7             	cmp    %rax,%rdi
  40564f:	41 8b bc 24 c0 02 00 	mov    0x2c0(%r12),%edi
  405656:	00 
  405657:	48 0f 47 d0          	cmova  %rax,%rdx
  40565b:	48 85 c9             	test   %rcx,%rcx
  40565e:	75 78                	jne    4056d8 <handle_send+0xe8>
	sz = write(
  405660:	e8 9b cc ff ff       	callq  402300 <write@plt>
    if ( sz < 0 && errno == EINTR )
  405665:	85 c0                	test   %eax,%eax
  405667:	0f 88 9b 00 00 00    	js     405708 <handle_send+0x118>
    if ( sz == 0 ||
  40566d:	0f 85 f5 00 00 00    	jne    405768 <handle_send+0x178>
	c->wouldblock_delay += MIN_WOULDBLOCK_DELAY;
  405673:	48 83 43 70 64       	addq   $0x64,0x70(%rbx)
	fdwatch_del_fd( hc->conn_fd );
  405678:	41 8b bc 24 c0 02 00 	mov    0x2c0(%r12),%edi
  40567f:	00 
	c->conn_state = CNST_PAUSING;
  405680:	c7 03 03 00 00 00    	movl   $0x3,(%rbx)
	fdwatch_del_fd( hc->conn_fd );
  405686:	e8 85 09 00 00       	callq  406010 <fdwatch_del_fd>
	if ( c->wakeup_timer != (Timer*) 0 )
  40568b:	48 83 7b 60 00       	cmpq   $0x0,0x60(%rbx)
  405690:	74 11                	je     4056a3 <handle_send+0xb3>
	    syslog( LOG_ERR, "replacing non-null wakeup_timer!" );
  405692:	be 38 ec 40 00       	mov    $0x40ec38,%esi
  405697:	bf 03 00 00 00       	mov    $0x3,%edi
  40569c:	31 c0                	xor    %eax,%eax
  40569e:	e8 7d cf ff ff       	callq  402620 <syslog@plt>
	c->wakeup_timer = tmr_create(
  4056a3:	48 8b 4b 70          	mov    0x70(%rbx),%rcx
  4056a7:	45 31 c0             	xor    %r8d,%r8d
  4056aa:	48 89 da             	mov    %rbx,%rdx
  4056ad:	be c0 38 40 00       	mov    $0x4038c0,%esi
  4056b2:	48 89 ef             	mov    %rbp,%rdi
  4056b5:	e8 96 86 00 00       	callq  40dd50 <tmr_create>
  4056ba:	48 89 43 60          	mov    %rax,0x60(%rbx)
	if ( c->wakeup_timer == (Timer*) 0 )
  4056be:	48 85 c0             	test   %rax,%rax
  4056c1:	0f 84 40 02 00 00    	je     405907 <handle_send+0x317>
    }
  4056c7:	48 83 c4 28          	add    $0x28,%rsp
  4056cb:	5b                   	pop    %rbx
  4056cc:	5d                   	pop    %rbp
  4056cd:	41 5c                	pop    %r12
  4056cf:	41 5d                	pop    %r13
  4056d1:	c3                   	retq   
  4056d2:	66 0f 1f 44 00 00    	nopw   0x0(%rax,%rax,1)
	iv[0].iov_base = hc->response;
  4056d8:	49 8b 84 24 70 01 00 	mov    0x170(%r12),%rax
  4056df:	00 
	iv[1].iov_base = &(hc->file_address[c->next_byte_index]);
  4056e0:	48 89 74 24 10       	mov    %rsi,0x10(%rsp)
	sz = writev( hc->conn_fd, iv, 2 );
  4056e5:	48 89 e6             	mov    %rsp,%rsi
	iv[1].iov_len = MIN( c->end_byte_index - c->next_byte_index, max_bytes );
  4056e8:	48 89 54 24 18       	mov    %rdx,0x18(%rsp)
	sz = writev( hc->conn_fd, iv, 2 );
  4056ed:	ba 02 00 00 00       	mov    $0x2,%edx
	iv[0].iov_base = hc->response;
  4056f2:	48 89 04 24          	mov    %rax,(%rsp)
	iv[0].iov_len = hc->responselen;
  4056f6:	48 89 4c 24 08       	mov    %rcx,0x8(%rsp)
	sz = writev( hc->conn_fd, iv, 2 );
  4056fb:	e8 80 cb ff ff       	callq  402280 <writev@plt>
    if ( sz < 0 && errno == EINTR )
  405700:	85 c0                	test   %eax,%eax
  405702:	0f 89 65 ff ff ff    	jns    40566d <handle_send+0x7d>
  405708:	e8 23 cb ff ff       	callq  402230 <__errno_location@plt>
  40570d:	8b 00                	mov    (%rax),%eax
  40570f:	83 f8 04             	cmp    $0x4,%eax
  405712:	74 b3                	je     4056c7 <handle_send+0xd7>
	 ( sz < 0 && ( errno == EWOULDBLOCK || errno == EAGAIN ) ) )
  405714:	83 f8 0b             	cmp    $0xb,%eax
  405717:	0f 84 56 ff ff ff    	je     405673 <handle_send+0x83>
	if ( errno != EPIPE && errno != EINVAL && errno != ECONNRESET )
  40571d:	83 f8 20             	cmp    $0x20,%eax
  405720:	0f 95 c1             	setne  %cl
  405723:	83 f8 16             	cmp    $0x16,%eax
  405726:	0f 95 c2             	setne  %dl
  405729:	84 d1                	test   %dl,%cl
  40572b:	74 1e                	je     40574b <handle_send+0x15b>
  40572d:	83 f8 68             	cmp    $0x68,%eax
  405730:	74 19                	je     40574b <handle_send+0x15b>
	    syslog( LOG_ERR, "write - %m sending %.80s", hc->encodedurl );
  405732:	49 8b 94 24 d0 00 00 	mov    0xd0(%r12),%rdx
  405739:	00 
  40573a:	be 75 f0 40 00       	mov    $0x40f075,%esi
  40573f:	bf 03 00 00 00       	mov    $0x3,%edi
  405744:	31 c0                	xor    %eax,%eax
  405746:	e8 d5 ce ff ff       	callq  402620 <syslog@plt>
	clear_connection( c, tvP );
  40574b:	48 89 ee             	mov    %rbp,%rsi
  40574e:	48 89 df             	mov    %rbx,%rdi
  405751:	e8 ea f9 ff ff       	callq  405140 <clear_connection>
    }
  405756:	48 83 c4 28          	add    $0x28,%rsp
  40575a:	5b                   	pop    %rbx
  40575b:	5d                   	pop    %rbp
  40575c:	41 5c                	pop    %r12
  40575e:	41 5d                	pop    %r13
  405760:	c3                   	retq   
  405761:	0f 1f 80 00 00 00 00 	nopl   0x0(%rax)
    c->active_at = tvP->tv_sec;
  405768:	48 8b 55 00          	mov    0x0(%rbp),%rdx
	if ( sz < hc->responselen )
  40576c:	48 63 f0             	movslq %eax,%rsi
    c->active_at = tvP->tv_sec;
  40576f:	48 89 53 58          	mov    %rdx,0x58(%rbx)
    if ( hc->responselen > 0 )
  405773:	49 8b 94 24 d8 01 00 	mov    0x1d8(%r12),%rdx
  40577a:	00 
  40577b:	48 85 d2             	test   %rdx,%rdx
  40577e:	0f 85 0c 01 00 00    	jne    405890 <handle_send+0x2a0>
    c->hc->bytes_sent += sz;
  405784:	48 8b 53 08          	mov    0x8(%rbx),%rdx
    c->next_byte_index += sz;
  405788:	4c 8b 8b 88 00 00 00 	mov    0x88(%rbx),%r9
    c->hc->bytes_sent += sz;
  40578f:	48 8b 82 c8 00 00 00 	mov    0xc8(%rdx),%rax
    c->next_byte_index += sz;
  405796:	49 01 f1             	add    %rsi,%r9
  405799:	4c 89 8b 88 00 00 00 	mov    %r9,0x88(%rbx)
    c->hc->bytes_sent += sz;
  4057a0:	48 01 f0             	add    %rsi,%rax
  4057a3:	48 89 82 c8 00 00 00 	mov    %rax,0xc8(%rdx)
    for ( tind = 0; tind < c->numtnums; ++tind )
  4057aa:	8b 53 38             	mov    0x38(%rbx),%edx
  4057ad:	85 d2                	test   %edx,%edx
  4057af:	7e 30                	jle    4057e1 <handle_send+0x1f1>
  4057b1:	83 ea 01             	sub    $0x1,%edx
	throttles[c->tnums[tind]].bytes_since_avg += sz;
  4057b4:	48 8b 3d 9d 17 21 00 	mov    0x21179d(%rip),%rdi        # 616f58 <throttles>
  4057bb:	48 8d 4b 10          	lea    0x10(%rbx),%rcx
  4057bf:	4c 8d 44 93 14       	lea    0x14(%rbx,%rdx,4),%r8
  4057c4:	0f 1f 40 00          	nopl   0x0(%rax)
  4057c8:	48 63 11             	movslq (%rcx),%rdx
  4057cb:	48 83 c1 04          	add    $0x4,%rcx
  4057cf:	48 8d 14 52          	lea    (%rdx,%rdx,2),%rdx
  4057d3:	48 c1 e2 04          	shl    $0x4,%rdx
  4057d7:	48 01 74 17 20       	add    %rsi,0x20(%rdi,%rdx,1)
    for ( tind = 0; tind < c->numtnums; ++tind )
  4057dc:	49 39 c8             	cmp    %rcx,%r8
  4057df:	75 e7                	jne    4057c8 <handle_send+0x1d8>
    if ( c->next_byte_index >= c->end_byte_index )
  4057e1:	4c 3b 8b 80 00 00 00 	cmp    0x80(%rbx),%r9
  4057e8:	0f 8d e2 00 00 00    	jge    4058d0 <handle_send+0x2e0>
    if ( c->wouldblock_delay > MIN_WOULDBLOCK_DELAY )
  4057ee:	48 8b 53 70          	mov    0x70(%rbx),%rdx
  4057f2:	48 83 fa 64          	cmp    $0x64,%rdx
  4057f6:	0f 8f b4 00 00 00    	jg     4058b0 <handle_send+0x2c0>
    if ( c->max_limit != THROTTLE_NOLIMIT )
  4057fc:	48 8b 4b 40          	mov    0x40(%rbx),%rcx
  405800:	48 83 f9 ff          	cmp    $0xffffffffffffffff,%rcx
  405804:	0f 84 bd fe ff ff    	je     4056c7 <handle_send+0xd7>
	elapsed = tvP->tv_sec - c->started_at;
  40580a:	48 8b 55 00          	mov    0x0(%rbp),%rdx
	if ( elapsed == 0 )
  40580e:	48 2b 53 50          	sub    0x50(%rbx),%rdx
  405812:	49 89 d5             	mov    %rdx,%r13
  405815:	0f 84 a5 00 00 00    	je     4058c0 <handle_send+0x2d0>
  40581b:	48 99                	cqto   
  40581d:	49 f7 fd             	idiv   %r13
	if ( c->hc->bytes_sent / elapsed > c->max_limit )
  405820:	48 39 c1             	cmp    %rax,%rcx
  405823:	0f 8d 9e fe ff ff    	jge    4056c7 <handle_send+0xd7>
	    c->conn_state = CNST_PAUSING;
  405829:	c7 03 03 00 00 00    	movl   $0x3,(%rbx)
	    fdwatch_del_fd( hc->conn_fd );
  40582f:	41 8b bc 24 c0 02 00 	mov    0x2c0(%r12),%edi
  405836:	00 
  405837:	e8 d4 07 00 00       	callq  406010 <fdwatch_del_fd>
	    coast = c->hc->bytes_sent / c->max_limit - elapsed;
  40583c:	48 8b 43 08          	mov    0x8(%rbx),%rax
  405840:	48 8b 80 c8 00 00 00 	mov    0xc8(%rax),%rax
  405847:	48 99                	cqto   
  405849:	48 f7 7b 40          	idivq  0x40(%rbx)
  40584d:	41 89 c4             	mov    %eax,%r12d
  405850:	45 29 ec             	sub    %r13d,%r12d
	    if ( c->wakeup_timer != (Timer*) 0 )
  405853:	48 83 7b 60 00       	cmpq   $0x0,0x60(%rbx)
  405858:	74 11                	je     40586b <handle_send+0x27b>
		syslog( LOG_ERR, "replacing non-null wakeup_timer!" );
  40585a:	be 38 ec 40 00       	mov    $0x40ec38,%esi
  40585f:	bf 03 00 00 00       	mov    $0x3,%edi
  405864:	31 c0                	xor    %eax,%eax
  405866:	e8 b5 cd ff ff       	callq  402620 <syslog@plt>
	    c->wakeup_timer = tmr_create(
  40586b:	b9 f4 01 00 00       	mov    $0x1f4,%ecx
  405870:	45 85 e4             	test   %r12d,%r12d
  405873:	0f 8e 2e fe ff ff    	jle    4056a7 <handle_send+0xb7>
		coast > 0 ? ( coast * 1000L ) : 500L, 0 );
  405879:	4d 63 e4             	movslq %r12d,%r12
	    c->wakeup_timer = tmr_create(
  40587c:	49 69 cc e8 03 00 00 	imul   $0x3e8,%r12,%rcx
  405883:	e9 1f fe ff ff       	jmpq   4056a7 <handle_send+0xb7>
  405888:	0f 1f 84 00 00 00 00 	nopl   0x0(%rax,%rax,1)
  40588f:	00 
	if ( sz < hc->responselen )
  405890:	48 39 f2             	cmp    %rsi,%rdx
  405893:	77 4b                	ja     4058e0 <handle_send+0x2f0>
	    hc->responselen = 0;
  405895:	49 c7 84 24 d8 01 00 	movq   $0x0,0x1d8(%r12)
  40589c:	00 00 00 00 00 
	    sz -= hc->responselen;
  4058a1:	29 d0                	sub    %edx,%eax
  4058a3:	48 63 f0             	movslq %eax,%rsi
  4058a6:	e9 d9 fe ff ff       	jmpq   405784 <handle_send+0x194>
  4058ab:	0f 1f 44 00 00       	nopl   0x0(%rax,%rax,1)
	c->wouldblock_delay -= MIN_WOULDBLOCK_DELAY;
  4058b0:	48 83 ea 64          	sub    $0x64,%rdx
  4058b4:	48 89 53 70          	mov    %rdx,0x70(%rbx)
  4058b8:	e9 3f ff ff ff       	jmpq   4057fc <handle_send+0x20c>
  4058bd:	0f 1f 00             	nopl   (%rax)
	    elapsed = 1;	/* count at least one second */
  4058c0:	41 bd 01 00 00 00    	mov    $0x1,%r13d
  4058c6:	e9 55 ff ff ff       	jmpq   405820 <handle_send+0x230>
  4058cb:	0f 1f 44 00 00       	nopl   0x0(%rax,%rax,1)
	finish_connection( c, tvP );
  4058d0:	48 89 ee             	mov    %rbp,%rsi
  4058d3:	48 89 df             	mov    %rbx,%rdi
  4058d6:	e8 85 f9 ff ff       	callq  405260 <finish_connection>
	return;
  4058db:	e9 e7 fd ff ff       	jmpq   4056c7 <handle_send+0xd7>
	    int newlen = hc->responselen - sz;
  4058e0:	29 c2                	sub    %eax,%edx
	    (void) memmove( hc->response, &(hc->response[sz]), newlen );
  4058e2:	49 8b bc 24 70 01 00 	mov    0x170(%r12),%rdi
  4058e9:	00 
  4058ea:	4c 63 ea             	movslq %edx,%r13
  4058ed:	48 01 fe             	add    %rdi,%rsi
  4058f0:	4c 89 ea             	mov    %r13,%rdx
  4058f3:	e8 08 ce ff ff       	callq  402700 <memmove@plt>
	    hc->responselen = newlen;
  4058f8:	4d 89 ac 24 d8 01 00 	mov    %r13,0x1d8(%r12)
  4058ff:	00 
	    sz = 0;
  405900:	31 f6                	xor    %esi,%esi
  405902:	e9 7d fe ff ff       	jmpq   405784 <handle_send+0x194>
	    syslog( LOG_CRIT, "tmr_create(wakeup_connection) failed" );
  405907:	bf 02 00 00 00       	mov    $0x2,%edi
  40590c:	be 60 ec 40 00       	mov    $0x40ec60,%esi
  405911:	31 c0                	xor    %eax,%eax
  405913:	e8 08 cd ff ff       	callq  402620 <syslog@plt>
	    exit( 1 );
  405918:	bf 01 00 00 00       	mov    $0x1,%edi
  40591d:	e8 de ce ff ff       	callq  402800 <exit@plt>
  405922:	0f 1f 40 00          	nopl   0x0(%rax)
  405926:	66 2e 0f 1f 84 00 00 	nopw   %cs:0x0(%rax,%rax,1)
  40592d:	00 00 00 

0000000000405930 <linger_clear_connection>:
    c->linger_timer = (Timer*) 0;
  405930:	48 c7 47 68 00 00 00 	movq   $0x0,0x68(%rdi)
  405937:	00 
    really_clear_connection( c, nowP );
  405938:	e9 63 f7 ff ff       	jmpq   4050a0 <really_clear_connection>
  40593d:	0f 1f 00             	nopl   (%rax)

0000000000405940 <handle_linger>:
    {
  405940:	55                   	push   %rbp
    r = read( c->hc->conn_fd, buf, sizeof(buf) );
  405941:	ba 00 10 00 00       	mov    $0x1000,%edx
    {
  405946:	48 89 f5             	mov    %rsi,%rbp
  405949:	53                   	push   %rbx
  40594a:	48 89 fb             	mov    %rdi,%rbx
  40594d:	48 81 ec 08 10 00 00 	sub    $0x1008,%rsp
    r = read( c->hc->conn_fd, buf, sizeof(buf) );
  405954:	48 8b 47 08          	mov    0x8(%rdi),%rax
  405958:	48 89 e6             	mov    %rsp,%rsi
  40595b:	8b b8 c0 02 00 00    	mov    0x2c0(%rax),%edi
  405961:	e8 5a cb ff ff       	callq  4024c0 <read@plt>
    if ( r < 0 && ( errno == EINTR || errno == EAGAIN ) )
  405966:	85 c0                	test   %eax,%eax
  405968:	78 16                	js     405980 <handle_linger+0x40>
    if ( r <= 0 )
  40596a:	74 25                	je     405991 <handle_linger+0x51>
    }
  40596c:	48 81 c4 08 10 00 00 	add    $0x1008,%rsp
  405973:	5b                   	pop    %rbx
  405974:	5d                   	pop    %rbp
  405975:	c3                   	retq   
  405976:	66 2e 0f 1f 84 00 00 	nopw   %cs:0x0(%rax,%rax,1)
  40597d:	00 00 00 
    if ( r < 0 && ( errno == EINTR || errno == EAGAIN ) )
  405980:	e8 ab c8 ff ff       	callq  402230 <__errno_location@plt>
  405985:	8b 00                	mov    (%rax),%eax
  405987:	83 f8 04             	cmp    $0x4,%eax
  40598a:	74 e0                	je     40596c <handle_linger+0x2c>
  40598c:	83 f8 0b             	cmp    $0xb,%eax
  40598f:	74 db                	je     40596c <handle_linger+0x2c>
	really_clear_connection( c, tvP );
  405991:	48 89 ee             	mov    %rbp,%rsi
  405994:	48 89 df             	mov    %rbx,%rdi
  405997:	e8 04 f7 ff ff       	callq  4050a0 <really_clear_connection>
    }
  40599c:	48 81 c4 08 10 00 00 	add    $0x1008,%rsp
  4059a3:	5b                   	pop    %rbx
  4059a4:	5d                   	pop    %rbp
  4059a5:	c3                   	retq   
  4059a6:	66 2e 0f 1f 84 00 00 	nopw   %cs:0x0(%rax,%rax,1)
  4059ad:	00 00 00 

00000000004059b0 <lookup_hostname.constprop.1>:
lookup_hostname( httpd_sockaddr* sa4P, size_t sa4_len, int* gotv4P, httpd_sockaddr* sa6P, size_t sa6_len, int* gotv6P )
  4059b0:	41 57                	push   %r15
    (void) memset( &hints, 0, sizeof(hints) );
  4059b2:	66 0f ef c0          	pxor   %xmm0,%xmm0
    (void) snprintf( portstr, sizeof(portstr), "%d", (int) port );
  4059b6:	31 c0                	xor    %eax,%eax
lookup_hostname( httpd_sockaddr* sa4P, size_t sa4_len, int* gotv4P, httpd_sockaddr* sa6P, size_t sa6_len, int* gotv6P )
  4059b8:	49 89 d7             	mov    %rdx,%r15
  4059bb:	41 56                	push   %r14
    (void) snprintf( portstr, sizeof(portstr), "%d", (int) port );
  4059bd:	ba 72 f0 40 00       	mov    $0x40f072,%edx
lookup_hostname( httpd_sockaddr* sa4P, size_t sa4_len, int* gotv4P, httpd_sockaddr* sa6P, size_t sa6_len, int* gotv6P )
  4059c2:	41 55                	push   %r13
  4059c4:	41 54                	push   %r12
  4059c6:	49 89 cc             	mov    %rcx,%r12
  4059c9:	55                   	push   %rbp
  4059ca:	48 89 f5             	mov    %rsi,%rbp
    (void) snprintf( portstr, sizeof(portstr), "%d", (int) port );
  4059cd:	be 0a 00 00 00       	mov    $0xa,%esi
lookup_hostname( httpd_sockaddr* sa4P, size_t sa4_len, int* gotv4P, httpd_sockaddr* sa6P, size_t sa6_len, int* gotv6P )
  4059d2:	53                   	push   %rbx
  4059d3:	48 89 fb             	mov    %rdi,%rbx
  4059d6:	48 83 ec 58          	sub    $0x58,%rsp
    (void) snprintf( portstr, sizeof(portstr), "%d", (int) port );
  4059da:	0f b7 0d 0f 16 21 00 	movzwl 0x21160f(%rip),%ecx        # 616ff0 <port>
  4059e1:	48 8d 7c 24 16       	lea    0x16(%rsp),%rdi
    (void) memset( &hints, 0, sizeof(hints) );
  4059e6:	0f 11 44 24 24       	movups %xmm0,0x24(%rsp)
  4059eb:	0f 11 44 24 34       	movups %xmm0,0x34(%rsp)
  4059f0:	48 c7 44 24 44 00 00 	movq   $0x0,0x44(%rsp)
  4059f7:	00 00 
  4059f9:	c7 44 24 4c 00 00 00 	movl   $0x0,0x4c(%rsp)
  405a00:	00 
    hints.ai_flags = AI_PASSIVE;
  405a01:	c7 44 24 20 01 00 00 	movl   $0x1,0x20(%rsp)
  405a08:	00 
    hints.ai_socktype = SOCK_STREAM;
  405a09:	c7 44 24 28 01 00 00 	movl   $0x1,0x28(%rsp)
  405a10:	00 
    (void) snprintf( portstr, sizeof(portstr), "%d", (int) port );
  405a11:	e8 ba c9 ff ff       	callq  4023d0 <snprintf@plt>
    if ( (gaierr = getaddrinfo( hostname, portstr, &hints, &ai )) != 0 )
  405a16:	48 8d 4c 24 08       	lea    0x8(%rsp),%rcx
  405a1b:	48 8d 54 24 20       	lea    0x20(%rsp),%rdx
  405a20:	48 8b 3d 61 15 21 00 	mov    0x211561(%rip),%rdi        # 616f88 <hostname>
  405a27:	48 8d 74 24 16       	lea    0x16(%rsp),%rsi
  405a2c:	e8 0f ce ff ff       	callq  402840 <getaddrinfo@plt>
  405a31:	85 c0                	test   %eax,%eax
  405a33:	0f 85 0f 01 00 00    	jne    405b48 <lookup_hostname.constprop.1+0x198>
    for ( ai2 = ai; ai2 != (struct addrinfo*) 0; ai2 = ai2->ai_next )
  405a39:	4c 8b 74 24 08       	mov    0x8(%rsp),%r14
    aiv4 = (struct addrinfo*) 0;
  405a3e:	45 31 ed             	xor    %r13d,%r13d
    aiv6 = (struct addrinfo*) 0;
  405a41:	31 f6                	xor    %esi,%esi
    for ( ai2 = ai; ai2 != (struct addrinfo*) 0; ai2 = ai2->ai_next )
  405a43:	4c 89 f0             	mov    %r14,%rax
  405a46:	4d 85 f6             	test   %r14,%r14
  405a49:	75 1a                	jne    405a65 <lookup_hostname.constprop.1+0xb5>
  405a4b:	e9 b6 00 00 00       	jmpq   405b06 <lookup_hostname.constprop.1+0x156>
  405a50:	83 fa 0a             	cmp    $0xa,%edx
  405a53:	75 07                	jne    405a5c <lookup_hostname.constprop.1+0xac>
	    if ( aiv6 == (struct addrinfo*) 0 )
  405a55:	48 85 f6             	test   %rsi,%rsi
  405a58:	48 0f 44 f0          	cmove  %rax,%rsi
    for ( ai2 = ai; ai2 != (struct addrinfo*) 0; ai2 = ai2->ai_next )
  405a5c:	48 8b 40 28          	mov    0x28(%rax),%rax
  405a60:	48 85 c0             	test   %rax,%rax
  405a63:	74 18                	je     405a7d <lookup_hostname.constprop.1+0xcd>
	switch ( ai2->ai_family )
  405a65:	8b 50 04             	mov    0x4(%rax),%edx
  405a68:	83 fa 02             	cmp    $0x2,%edx
  405a6b:	75 e3                	jne    405a50 <lookup_hostname.constprop.1+0xa0>
	    if ( aiv4 == (struct addrinfo*) 0 )
  405a6d:	4d 85 ed             	test   %r13,%r13
  405a70:	4c 0f 44 e8          	cmove  %rax,%r13
    for ( ai2 = ai; ai2 != (struct addrinfo*) 0; ai2 = ai2->ai_next )
  405a74:	48 8b 40 28          	mov    0x28(%rax),%rax
  405a78:	48 85 c0             	test   %rax,%rax
  405a7b:	75 e8                	jne    405a65 <lookup_hostname.constprop.1+0xb5>
    if ( aiv6 == (struct addrinfo*) 0 )
  405a7d:	48 85 f6             	test   %rsi,%rsi
  405a80:	0f 84 91 00 00 00    	je     405b17 <lookup_hostname.constprop.1+0x167>
	if ( sa6_len < aiv6->ai_addrlen )
  405a86:	44 8b 46 10          	mov    0x10(%rsi),%r8d
  405a8a:	49 81 f8 80 00 00 00 	cmp    $0x80,%r8
  405a91:	0f 87 8a 00 00 00    	ja     405b21 <lookup_hostname.constprop.1+0x171>
	(void) memset( sa6P, 0, sa6_len );
  405a97:	b9 10 00 00 00       	mov    $0x10,%ecx
  405a9c:	4c 89 ff             	mov    %r15,%rdi
  405a9f:	f3 48 ab             	rep stos %rax,%es:(%rdi)
	(void) memmove( sa6P, aiv6->ai_addr, aiv6->ai_addrlen );
  405aa2:	4c 89 ff             	mov    %r15,%rdi
  405aa5:	8b 56 10             	mov    0x10(%rsi),%edx
  405aa8:	48 8b 76 18          	mov    0x18(%rsi),%rsi
  405aac:	e8 4f cc ff ff       	callq  402700 <memmove@plt>
	*gotv6P = 1;
  405ab1:	41 c7 04 24 01 00 00 	movl   $0x1,(%r12)
  405ab8:	00 
    if ( aiv4 == (struct addrinfo*) 0 )
  405ab9:	4d 85 ed             	test   %r13,%r13
  405abc:	74 50                	je     405b0e <lookup_hostname.constprop.1+0x15e>
	if ( sa4_len < aiv4->ai_addrlen )
  405abe:	45 8b 45 10          	mov    0x10(%r13),%r8d
  405ac2:	49 81 f8 80 00 00 00 	cmp    $0x80,%r8
  405ac9:	77 56                	ja     405b21 <lookup_hostname.constprop.1+0x171>
	(void) memset( sa4P, 0, sa4_len );
  405acb:	31 c0                	xor    %eax,%eax
  405acd:	b9 10 00 00 00       	mov    $0x10,%ecx
  405ad2:	48 89 df             	mov    %rbx,%rdi
  405ad5:	f3 48 ab             	rep stos %rax,%es:(%rdi)
	(void) memmove( sa4P, aiv4->ai_addr, aiv4->ai_addrlen );
  405ad8:	48 89 df             	mov    %rbx,%rdi
  405adb:	41 8b 55 10          	mov    0x10(%r13),%edx
  405adf:	49 8b 75 18          	mov    0x18(%r13),%rsi
  405ae3:	e8 18 cc ff ff       	callq  402700 <memmove@plt>
	*gotv4P = 1;
  405ae8:	c7 45 00 01 00 00 00 	movl   $0x1,0x0(%rbp)
    freeaddrinfo( ai );
  405aef:	4c 89 f7             	mov    %r14,%rdi
  405af2:	e8 d9 cd ff ff       	callq  4028d0 <freeaddrinfo@plt>
    }
  405af7:	48 83 c4 58          	add    $0x58,%rsp
  405afb:	5b                   	pop    %rbx
  405afc:	5d                   	pop    %rbp
  405afd:	41 5c                	pop    %r12
  405aff:	41 5d                	pop    %r13
  405b01:	41 5e                	pop    %r14
  405b03:	41 5f                	pop    %r15
  405b05:	c3                   	retq   
	*gotv6P = 0;
  405b06:	41 c7 04 24 00 00 00 	movl   $0x0,(%r12)
  405b0d:	00 
	*gotv4P = 0;
  405b0e:	c7 45 00 00 00 00 00 	movl   $0x0,0x0(%rbp)
  405b15:	eb d8                	jmp    405aef <lookup_hostname.constprop.1+0x13f>
	*gotv6P = 0;
  405b17:	41 c7 04 24 00 00 00 	movl   $0x0,(%r12)
  405b1e:	00 
  405b1f:	eb 98                	jmp    405ab9 <lookup_hostname.constprop.1+0x109>
	    syslog(
  405b21:	48 8b 15 60 14 21 00 	mov    0x211460(%rip),%rdx        # 616f88 <hostname>
  405b28:	bf 02 00 00 00       	mov    $0x2,%edi
  405b2d:	b9 80 00 00 00       	mov    $0x80,%ecx
  405b32:	31 c0                	xor    %eax,%eax
  405b34:	be 88 ec 40 00       	mov    $0x40ec88,%esi
  405b39:	e8 e2 ca ff ff       	callq  402620 <syslog@plt>
	    exit( 1 );
  405b3e:	bf 01 00 00 00       	mov    $0x1,%edi
  405b43:	e8 b8 cc ff ff       	callq  402800 <exit@plt>
	syslog(
  405b48:	89 c7                	mov    %eax,%edi
  405b4a:	41 89 c5             	mov    %eax,%r13d
  405b4d:	e8 8e c8 ff ff       	callq  4023e0 <gai_strerror@plt>
  405b52:	be 8e f0 40 00       	mov    $0x40f08e,%esi
  405b57:	bf 02 00 00 00       	mov    $0x2,%edi
  405b5c:	48 8b 15 25 14 21 00 	mov    0x211425(%rip),%rdx        # 616f88 <hostname>
  405b63:	48 89 c1             	mov    %rax,%rcx
  405b66:	31 c0                	xor    %eax,%eax
  405b68:	e8 b3 ca ff ff       	callq  402620 <syslog@plt>
	(void) fprintf(
  405b6d:	44 89 ef             	mov    %r13d,%edi
  405b70:	e8 6b c8 ff ff       	callq  4023e0 <gai_strerror@plt>
  405b75:	48 8b 3d 94 13 21 00 	mov    0x211394(%rip),%rdi        # 616f10 <stderr@@GLIBC_2.2.5>
  405b7c:	be a8 f0 40 00       	mov    $0x40f0a8,%esi
  405b81:	48 8b 0d 00 14 21 00 	mov    0x211400(%rip),%rcx        # 616f88 <hostname>
  405b88:	48 8b 15 69 14 21 00 	mov    0x211469(%rip),%rdx        # 616ff8 <argv0>
  405b8f:	49 89 c0             	mov    %rax,%r8
  405b92:	31 c0                	xor    %eax,%eax
  405b94:	e8 97 c9 ff ff       	callq  402530 <fprintf@plt>
	exit( 1 );
  405b99:	bf 01 00 00 00       	mov    $0x1,%edi
  405b9e:	e8 5d cc ff ff       	callq  402800 <exit@plt>
  405ba3:	66 2e 0f 1f 84 00 00 	nopw   %cs:0x0(%rax,%rax,1)
  405baa:	00 00 00 
  405bad:	0f 1f 00             	nopl   (%rax)

0000000000405bb0 <poll_init>:
static int* poll_rfdidx;


static int
poll_init( int nfiles )
    {
  405bb0:	41 55                	push   %r13
  405bb2:	41 54                	push   %r12
  405bb4:	4c 63 e7             	movslq %edi,%r12
  405bb7:	55                   	push   %rbp
    int i;

    pollfds = (struct pollfd*) malloc( sizeof(struct pollfd) * nfiles );
  405bb8:	4a 8d 3c e5 00 00 00 	lea    0x0(,%r12,8),%rdi
  405bbf:	00 
    {
  405bc0:	4d 89 e5             	mov    %r12,%r13
    poll_fdidx = (int*) malloc( sizeof(int) * nfiles );
  405bc3:	49 c1 e4 02          	shl    $0x2,%r12
    {
  405bc7:	53                   	push   %rbx
  405bc8:	48 83 ec 08          	sub    $0x8,%rsp
    pollfds = (struct pollfd*) malloc( sizeof(struct pollfd) * nfiles );
  405bcc:	e8 ff c9 ff ff       	callq  4025d0 <malloc@plt>
    poll_fdidx = (int*) malloc( sizeof(int) * nfiles );
  405bd1:	4c 89 e7             	mov    %r12,%rdi
    pollfds = (struct pollfd*) malloc( sizeof(struct pollfd) * nfiles );
  405bd4:	48 89 c3             	mov    %rax,%rbx
  405bd7:	48 89 05 3a 14 21 00 	mov    %rax,0x21143a(%rip)        # 617018 <pollfds>
    poll_fdidx = (int*) malloc( sizeof(int) * nfiles );
  405bde:	e8 ed c9 ff ff       	callq  4025d0 <malloc@plt>
    poll_rfdidx = (int*) malloc( sizeof(int) * nfiles );
  405be3:	4c 89 e7             	mov    %r12,%rdi
    poll_fdidx = (int*) malloc( sizeof(int) * nfiles );
  405be6:	48 89 c5             	mov    %rax,%rbp
  405be9:	48 89 05 18 14 21 00 	mov    %rax,0x211418(%rip)        # 617008 <poll_fdidx>
    poll_rfdidx = (int*) malloc( sizeof(int) * nfiles );
  405bf0:	e8 db c9 ff ff       	callq  4025d0 <malloc@plt>
    if ( pollfds == (struct pollfd*) 0 || poll_fdidx == (int*) 0 ||
  405bf5:	48 85 db             	test   %rbx,%rbx
  405bf8:	0f 94 c1             	sete   %cl
  405bfb:	48 85 ed             	test   %rbp,%rbp
    poll_rfdidx = (int*) malloc( sizeof(int) * nfiles );
  405bfe:	48 89 05 fb 13 21 00 	mov    %rax,0x2113fb(%rip)        # 617000 <poll_rfdidx>
    if ( pollfds == (struct pollfd*) 0 || poll_fdidx == (int*) 0 ||
  405c05:	0f 94 c2             	sete   %dl
  405c08:	08 d1                	or     %dl,%cl
  405c0a:	75 3c                	jne    405c48 <poll_init+0x98>
  405c0c:	48 85 c0             	test   %rax,%rax
  405c0f:	74 37                	je     405c48 <poll_init+0x98>
  405c11:	41 8d 4d ff          	lea    -0x1(%r13),%ecx
	 poll_rfdidx == (int*) 0 )
	return -1;
    for ( i = 0; i < nfiles; ++i )
  405c15:	31 c0                	xor    %eax,%eax
  405c17:	45 85 ed             	test   %r13d,%r13d
  405c1a:	7f 07                	jg     405c23 <poll_init+0x73>
  405c1c:	eb 1d                	jmp    405c3b <poll_init+0x8b>
  405c1e:	66 90                	xchg   %ax,%ax
  405c20:	48 89 d0             	mov    %rdx,%rax
	pollfds[i].fd = poll_fdidx[i] = -1;
  405c23:	c7 44 85 00 ff ff ff 	movl   $0xffffffff,0x0(%rbp,%rax,4)
  405c2a:	ff 
  405c2b:	48 8d 50 01          	lea    0x1(%rax),%rdx
  405c2f:	c7 04 c3 ff ff ff ff 	movl   $0xffffffff,(%rbx,%rax,8)
